(dp1
I2060
(lp2
I13713
aI1
aNaI1
aI0
aI0
aI0
aI0
aI0
aI0
aI0
aI0
aI0
aI0
aI0
aI0
aI0
aI80
aI0
aI2
aI15
aI0
aI0
aI0
aI1
aI0
aI3
aI0
aI0
aI26
aI0
aI0
aI1
aI0
aI1
aI3
aI0
aI-1
aI0
aF0.10000000000000001
aI1
aI1
aI1
aI1
aI0
aI0
aI0
aI0
aI0
aI0
aI0
aI0
aI0
aVcutlass_stab
p3
aI0
aI1
aI1
aI0
asI2061
(lp4
I13713
aI1
aNaI1
aI0
aI0
aI0
aI0
aI0
aI0
aI0
aI0
aI0
aI0
aI0
aI0
aI0
aI80
aI0
aI2
aI15
aI0
aI0
aI0
aI1
aI0
aI0
aI0
aI0
aI26
aI0
aI0
aI1
aI0
aI1
aI3
aI0
aI-1
aI0
aF0.10000000000000001
aI1
aI1
aI1
aI1
aI0
aI0
aI0
aI0
aI0
aI0
aI0
aI0
aI0
aVcutlass_stab
p5
aI0
aI1
aI1
aI0
asI2062
(lp6
I13713
aI1
aNaI1
aI0
aI0
aI0
aI0
aI0
aI0
aI0
aI0
aI0
aI0
aI0
aI0
aI0
aI80
aI0
aI2
aI15
aI0
aI0
aI0
aI1
aI0
aI0
aI0
aI0
aI26
aI0
aI0
aI1
aI0
aI1
aI3
aI0
aI-1
aI0
aF0.10000000000000001
aI1
aI1
aI1
aI1
aI0
aI0
aI0
aI0
aI0
aI0
aI0
aI0
aI0
aVcutlass_stab
p7
aI0
aI1
aI1
aI0
asI2063
(lp8
I13713
aI1
aNaI1
aI0
aI0
aI0
aI0
aI0
aI0
aI0
aI0
aI0
aI0
aI0
aI0
aI0
aI80
aI0
aI2
aI120
aI0
aI0
aI0
aI1
aI0
aI0
aI0
aI0
aI21
aI0
aI0
aI1
aI0
aI1
aI10
aI2
aI-1
aI0
aF1.2
aI1
aI1
aI1
aI1
aI0
aI0
aI0
aI0
aI0
aI0
aI0
aI0
aI0
aVcutlass_stab
p9
aI8
aI1
aI1
aI0
asI2064
(lp10
I13713
aI1
aNaI1
aI0
aI0
aI0
aI0
aI0
aI0
aI0
aI0
aI0
aI0
aI0
aI0
aI0
aI80
aI0
aI2
aI15
aI0
aI0
aI0
aI1
aI0
aI0
aI0
aI0
aI26
aI0
aI0
aI1
aI0
aI1
aI3
aI0
aI-1
aI0
aF0.10000000000000001
aI3
aI1
aI1
aI1
aI0
aI0
aI0
aI0
aI0
aI0
aI0
aI0
aI0
aVcutlass_stab
p11
aI0
aI1
aF1.25
aI0
asI12307
(lp12
I13705
aI2
aI14000
aI0
aI0
aI0
aI0
aI0
aI0
aI0
aI-10
aI0
aI0
aI0
aI0
aI0
aI0
aI60
aI0
aI0
aI-50
aI0
aI0
aI0
aI1
aI0
aI0
aI0
aI0
aI0
aI0
aI0
aI0
aI1
aI0
aI0
aI0
aI50
aI0
aI0
aI1
aI0
aI2
aI1
aI0
aI0
aI0
aI0
aI0
aI0
aI0
aI0
aI0
aVsword
p13
aI0
aI0
aI1
aI1
asI12308
(lp14
I13705
aI2
aI14001
aI0
aI0
aI0
aI0
aI0
aI0
aI0
aI-20
aI-4
aI-1
aI-4
aI0
aI0
aI0
aI80
aI0
aI0
aI0
aI0
aI0
aI0
aI1
aI0
aI0
aI0
aI0
aI0
aI0
aI0
aI0
aI1
aI0
aI0
aI0
aI50
aI0
aI0
aI1
aI0
aI2
aI1
aI0
aI0
aI0
aI0
aI0
aI0
aI0
aI0
aI0
aVsword
p15
aI0
aI0
aI1
aI1
asI12309
(lp16
I13705
aI2
aI14002
aI0
aI0
aI0
aI0
aI0
aI0
aI0
aI-10
aI0
aI0
aI0
aI0
aI0
aI0
aI60
aI0
aI0
aI0
aI0
aI0
aI0
aI1
aI0
aI0
aI0
aI0
aI3
aF2.5
aI0
aI0
aI1
aI1
aI15
aI2
aI50
aI0
aF2.5
aI1
aI0
aI2
aI1
aI0
aI0
aI0
aI0
aI0
aI0
aI0
aI0
aI0
aVsword
p17
aI0
aI0
aI1
aI1
asI12310
(lp18
I13705
aI2
aI14003
aI0
aI0
aI0
aI0
aI0
aI0
aI0
aI-65
aI0
aI0
aI0
aI0
aI0
aI0
aI80
aI0
aI0
aI-20
aI0
aI0
aI0
aI1
aI0
aI0
aI0
aI0
aI0
aI0
aI0
aI0
aI1
aI0
aI0
aI0
aI50
aI0
aI0
aI1
aI0
aI2
aI1
aI0
aI0
aI0
aI0
aI0
aI0
aI0
aI0
aI0
aVsword
p19
aI0
aI0
aI1
aI1
asI12311
(lp20
I13705
aI2
aI14004
aI0
aI0
aI0
aI0
aI0
aI0
aI0
aI-90
aI0
aI0
aI0
aI0
aI0
aI0
aI80
aI0
aI0
aI-20
aI25
aI1
aI0
aI1
aI0
aI0
aI0
aI0
aI0
aI0
aI0
aI0
aI1
aI0
aI0
aI0
aI50
aI0
aF2.5
aI1
aI0
aI2
aI1
aI0
aI0
aI0
aI0
aI0
aI0
aI0
aI0
aI0
aVsword
p21
aI0
aI1
aI1
aI1
asI2080
(lp22
I0
aI0
aNaI0
aI0
aI0
aI0
aI0
aI0
aI0
aI0
aI0
aI0
aI0
aI0
aI0
aI0
aI100
aI0
aI1
aI0
aI0
aI0
aI0
aI1
aI0
aI0
aI0
aI0
aI0
aI0
aI0
aI0
aI0
aI0
aI0
aI0
aI-1
aI0
aF0.10000000000000001
aI1
aI1
aI1
aI1
aI0
aI0
aI0
aI0
aI0
aI0
aI0
aI1
aI1
aVsail_open_fire
p23
aI0
aI0
aI1
aF1.1599999999999999
asI2081
(lp24
I0
aI0
aNaI0
aI0
aI0
aI0
aI0
aI0
aI0
aI0
aI0
aI0
aI0
aI0
aI0
aI0
aI100
aI0
aI0
aI0
aI0
aI0
aI0
aI1
aI0
aI0
aI0
aI0
aI0
aI0
aI0
aI0
aI0
aI0
aI0
aI0
aI-1
aI0
aF0.10000000000000001
aI1
aI1
aI1
aI1
aI0
aI0
aI0
aI0
aI0
aI0
aI0
aI1
aI1
aVpistol_take_aim
p25
aI0
aI0
aI1
aI0
asI2100
(lp26
I0
aI0
aNaI0
aI0
aI0
aI0
aI0
aI0
aI0
aI0
aI0
aI0
aI0
aI0
aI0
aI0
aI100
aI0
aI0
aI0
aI0
aI0
aI0
aI1
aI0
aI0
aI0
aI0
aI0
aI0
aI0
aI0
aI0
aI0
aI0
aI0
aI-1
aI0
aF0.10000000000000001
aI1
aI0
aI1
aI1
aI0
aI0
aI0
aI0
aI0
aI0
aI0
aI1
aI1
aVstaff_sparks
p27
aI0
aI0
aI1
aI0
asI2101
(lp28
I0
aI0
aNaI0
aI0
aI0
aI0
aI0
aI0
aI0
aI0
aI0
aI0
aI0
aI0
aI0
aI0
aI100
aI0
aI0
aI0
aI0
aI0
aI0
aI1
aI0
aI0
aI0
aI0
aI0
aI0
aI0
aI0
aI0
aI0
aI0
aI0
aI-1
aI0
aF0.10000000000000001
aI1
aI0
aI1
aI0
aI0
aI0
aI0
aI0
aI0
aI0
aI0
aI1
aI1
aVstaff_sparks
p29
aI0
aI0
aI1
aI0
asI2102
(lp30
I0
aI0
aNaI0
aI0
aI0
aI0
aI0
aI0
aI0
aI0
aI0
aI0
aI0
aI0
aI0
aI0
aI100
aI0
aI0
aI0
aI0
aI0
aI0
aI1
aI0
aI0
aI0
aI0
aI0
aI0
aI0
aI0
aI0
aI0
aI0
aI0
aI-1
aI0
aF0.10000000000000001
aI1
aI0
aI1
aI0
aI0
aI0
aI0
aI0
aI0
aI0
aI0
aI1
aI1
aVstaff_frostbeam
p31
aI0
aI0
aI1
aI0
asI2103
(lp32
I0
aI0
aNaI0
aI0
aI0
aI0
aI0
aI0
aI0
aI0
aI0
aI0
aI0
aI0
aI0
aI0
aI100
aI0
aI0
aI0
aI0
aI0
aI0
aI1
aI0
aI0
aI0
aI0
aI0
aI0
aI0
aI0
aI0
aI0
aI0
aI0
aI-1
aI0
aF0.10000000000000001
aI1
aI0
aI1
aI0
aI0
aI0
aI0
aI0
aI0
aI0
aI0
aI1
aI1
aVstaff_pestilence
p33
aI0
aI0
aI1
aI0
asI2104
(lp34
I0
aI0
aNaI0
aI0
aI0
aI0
aI0
aI0
aI0
aI0
aI0
aI0
aI0
aI0
aI0
aI0
aI100
aI0
aI0
aI0
aI0
aI0
aI0
aI1
aI0
aI0
aI0
aI0
aI0
aI0
aI0
aI0
aI0
aI0
aI0
aI0
aI-1
aI0
aF0.10000000000000001
aI1
aI0
aI1
aI0
aI0
aI0
aI0
aI0
aI0
aI0
aI0
aI1
aI1
aVstaff_fire
p35
aI0
aI0
aI1
aI0
asI2105
(lp36
I0
aI0
aNaI0
aI0
aI0
aI0
aI0
aI0
aI0
aI0
aI0
aI0
aI0
aI0
aI0
aI0
aI100
aI0
aI0
aI0
aI0
aI0
aI0
aI1
aI0
aI0
aI0
aI0
aI0
aI0
aI0
aI0
aI0
aI0
aI0
aI0
aI-1
aI0
aF0.10000000000000001
aI1
aI0
aI1
aI0
aI0
aI0
aI0
aI0
aI0
aI0
aI0
aI1
aI1
aVstaff_deluge
p37
aI0
aI0
aI1
aI0
asI2106
(lp38
I0
aI0
aNaI0
aI0
aI0
aI0
aI0
aI0
aI0
aI0
aI0
aI0
aI0
aI0
aI0
aI0
aI100
aI0
aI0
aI0
aI0
aI0
aI0
aI1
aI0
aI0
aI0
aI0
aI0
aI0
aI0
aI0
aI0
aI0
aI0
aI0
aI-1
aI0
aF0.10000000000000001
aI1
aI0
aI1
aI0
aI0
aI0
aI0
aI0
aI0
aI0
aI0
aI1
aI1
aVstaff_shockwave
p39
aI0
aI0
aI1
aI0
asI12913
(lp40
I13711
aI5
aI14208
aI1
aI1
aI0
aI0
aI0
aI0
aI0
aI-250
aI0
aI0
aI0
aI0
aI-70
aI0
aI100
aI0
aI5
aI-1
aI5
aI1
aI0
aI2
aI530
aI1
aI0
aI0
aI0
aI0
aI0
aI0
aI0
aI0
aI0
aI0
aI100
aI0
aI0
aI1
aI0
aI0
aI0
aI0
aI0
aI0
aI0
aI0
aI0
aI0
aI0
aI0
aVbullet
p41
aI0
aI1
aI1
aI1
asI2120
(lp42
I0
aI0
aNaI0
aI0
aI0
aI0
aI0
aI0
aI0
aI0
aI0
aI0
aI0
aI0
aI0
aI0
aI100
aI0
aI1
aI0
aI0
aI0
aI0
aI1
aI0
aI0
aI0
aI0
aI0
aI0
aI0
aI0
aI0
aI0
aI0
aI0
aI-1
aI0
aF0.10000000000000001
aI1
aI1
aI1
aI1
aI0
aI0
aI0
aI0
aI0
aI0
aI0
aI1
aI1
aVgrenade_throw
p43
aI0
aI2
aI1
aI2
asI12300
(lp44
I13705
aI2
aNaI1
aI0
aI0
aI0
aI0
aI0
aI0
aI-25
aI0
aI0
aI0
aI0
aI0
aI0
aI80
aI0
aI5
aI150
aI0
aI0
aI0
aI1
aI0
aI0
aI0
aI0
aI0
aI0
aI0
aI1
aI1
aI0
aI0
aI0
aI-1
aI0
aF0.10000000000000001
aI1
aI1
aI1
aI1
aI0
aI0
aI0
aI0
aI0
aI0
aI0
aI0
aI0
aVsword
p45
aI0
aI0
aI1
aI1
asI12302
(lp46
I13705
aI2
aNaI2
aI0
aI0
aI0
aI0
aI0
aI0
aI-75
aI0
aI0
aI0
aI0
aI0
aI0
aI100
aI0
aI2
aI200
aI0
aI0
aI0
aI1
aI0
aI0
aI0
aI0
aI0
aI0
aI0
aI1
aI1
aI0
aI0
aI0
aI-1
aI4
aF0.10000000000000001
aI1
aI2
aI1
aI1
aI0
aI0
aI0
aI0
aI0
aI0
aI0
aI0
aI0
aVsword
p47
aI0
aI0
aI1
aI1
asI2140
(lp48
I13713
aI1
aNaI1
aI0
aI0
aI0
aI0
aI0
aI0
aI0
aI0
aI0
aI0
aI0
aI0
aI0
aI90
aI0
aI2
aI6
aI0
aI0
aI0
aI1
aI0
aI0
aI0
aI0
aI26
aI0
aI0
aI1
aI0
aI1
aI3
aI0
aI-1
aI0
aF0.10000000000000001
aI1
aI1
aI1
aI1
aI0
aI0
aI0
aI0
aI0
aI0
aI0
aI0
aI0
aVcutlass_stab
p49
aI0
aI1
aI1
aI0
asI2141
(lp50
I13713
aI1
aNaI1
aI0
aI0
aI0
aI0
aI0
aI0
aI0
aI0
aI0
aI0
aI0
aI0
aI0
aI90
aI0
aI2
aI6
aI0
aI0
aI0
aI1
aI0
aI0
aI0
aI0
aI26
aI0
aI0
aI1
aI0
aI1
aI3
aI0
aI-1
aI0
aF0.10000000000000001
aI1
aI1
aI1
aI1
aI0
aI0
aI0
aI0
aI0
aI0
aI0
aI0
aI0
aVcutlass_stab
p51
aI0
aI1
aI1
aI0
asI2142
(lp52
I13713
aI1
aNaI1
aI0
aI0
aI0
aI0
aI0
aI0
aI0
aI0
aI0
aI0
aI0
aI0
aI0
aI90
aI0
aI2
aI6
aI0
aI0
aI0
aI1
aI0
aI0
aI0
aI0
aI26
aI0
aI0
aI1
aI0
aI1
aI3
aI0
aI-1
aI0
aF0.10000000000000001
aI1
aI1
aI1
aI1
aI0
aI0
aI0
aI0
aI0
aI0
aI0
aI0
aI0
aVcutlass_stab
p53
aI0
aI1
aF1.5
aI0
asI2143
(lp54
I13713
aI1
aNaI1
aI0
aI0
aI0
aI0
aI0
aI0
aI0
aI0
aI0
aI0
aI0
aI0
aI0
aI90
aI0
aI10
aI12
aI0
aI0
aI0
aI1
aI0
aI0
aI0
aI0
aI4
aI0
aI0
aI1
aI0
aI1
aI4
aI2
aI-1
aI0
aF0.10000000000000001
aI1
aI1
aI1
aI1
aI0
aI0
aI0
aI0
aI0
aI0
aI0
aI0
aI0
aVcutlass_stab
p55
aI10
aI1
aF0.5
aI0
asI2144
(lp56
I13713
aI1
aNaI1
aI0
aI0
aI0
aI0
aI0
aI0
aI0
aI0
aI0
aI0
aI0
aI0
aI0
aI90
aI0
aI6
aI6
aI0
aI0
aI0
aI1
aI0
aI0
aI0
aI0
aI7
aI0
aI0
aI1
aI0
aI1
aI5
aI0
aI-1
aI0
aF0.10000000000000001
aI1
aI1
aI1
aI1
aI0
aI0
aI0
aI0
aI0
aI0
aI0
aI0
aI0
aVcutlass_stab
p57
aI0
aI1
aI2
aI0
asI2145
(lp58
I13713
aI1
aNaI1
aI0
aI0
aI0
aI0
aI0
aI0
aI0
aI0
aI0
aI0
aI0
aI0
aI0
aI90
aI0
aI15
aI6
aI0
aI0
aI0
aI1
aI0
aI0
aI0
aI0
aI7
aI0
aI0
aI1
aI0
aI1
aI12
aI0
aI-1
aI0
aF0.10000000000000001
aI1
aI1
aI1
aI1
aI0
aI0
aI0
aI0
aI0
aI0
aI0
aI0
aI0
aVcutlass_stab
p59
aI0
aI1
aF0.75
aI0
asI12900
(lp60
I13711
aI5
aNaI1
aI1
aI0
aI0
aI0
aI0
aI0
aI0
aI0
aI0
aI0
aI0
aI0
aI0
aI100
aI0
aF0.40000000000000002
aI-1
aI0
aI0
aI0
aI0
aI0
aI0
aI0
aI0
aI0
aI0
aI0
aI0
aI0
aI0
aI0
aI0
aI-1
aI0
aI0
aI1
aI0
aI1
aI1
aI0
aI0
aI0
aI0
aI0
aI0
aI0
aI1
aI1
aVcannon_shoot
p61
aI6
aI1
aI1
aI1
asI12901
(lp62
I13711
aI5
aNaI1
aI1
aI0
aI0
aI0
aI0
aI0
aI-150
aI0
aI0
aI0
aI0
aI-80
aI-40
aI100
aI0
aI3
aI-1
aI10
aI1
aI0
aI3
aI1300
aI1
aI0
aI0
aI0
aI0
aI0
aI0
aI0
aI0
aI0
aI0
aI-1
aI0
aI0
aI1
aI0
aI2
aI1
aI0
aI0
aI0
aI0
aI0
aI0
aI0
aI1
aI1
aVcannon_round_shot
p63
aI6
aI1
aI1
aI1
asI12902
(lp64
I13711
aI5
aI14201
aF1.5
aI1
aI0
aI0
aI0
aI0
aI0
aI-75
aI0
aI0
aI0
aI0
aI-20
aI-200
aI100
aI0
aI3
aI-1
aI5
aI1
aI0
aI2
aI950
aI1
aI0
aI0
aI0
aI0
aI0
aI0
aI0
aI0
aI0
aI0
aI100
aI0
aI0
aI1
aI0
aI2
aI1
aI0
aI0
aI0
aI0
aI0
aI0
aI0
aI1
aI1
aVcannon_chain_shot
p65
aI6
aI1
aI1
aI1
asI12903
(lp66
I13711
aI5
aI14202
aI2
aI0
aI0
aI0
aI0
aI0
aI0
aI-100
aI0
aI0
aI0
aI0
aI0
aI0
aI80
aI0
aI3
aI400
aI0
aI0
aI0
aI1
aI0
aI2
aI0
aI0
aI6
aI0
aI0
aI0
aI0
aI1
aI4
aI0
aI100
aI0
aF0.29999999999999999
aI1
aI0
aI2
aI1
aI0
aI0
aI0
aI0
aI0
aI0
aI0
aI1
aI1
aVcannon_grape_shot
p67
aI30
aI1
aI1
aI1
asI12904
(lp68
I13711
aI5
aI14203
aI1
aI1
aI0
aI0
aI0
aI0
aI0
aI-125
aI0
aI0
aI0
aI0
aI-100
aI-100
aI100
aI0
aI3
aI-1
aI10
aI1
aI0
aI3
aI1300
aI1
aI0
aI0
aI2
aI0
aI0
aI0
aI0
aI1
aI20
aI2
aI100
aI0
aF0.5
aI1
aI0
aI2
aI1
aI0
aI0
aI0
aI0
aI0
aI0
aI0
aI0
aI0
aVcannon_firebrand
p69
aI9
aI1
aI1
aI1
asI12905
(lp70
I13711
aI5
aI14204
aI3
aI1
aI0
aI0
aI0
aI0
aI0
aI-275
aI0
aI0
aI0
aI0
aI-240
aI-150
aI100
aI0
aI3
aI-1
aI0
aI0
aI0
aI1
aI1700
aI0
aI0
aI0
aI0
aI0
aI0
aI0
aI0
aI0
aI0
aI0
aI100
aI0
aI0
aI1
aI0
aI2
aI1
aI0
aI0
aI0
aI0
aI0
aI0
aI0
aI0
aI0
aVcannon_thunderbolt
p71
aI16
aI1
aI1
aI1
asI12906
(lp72
I13711
aI5
aI14205
aI20
aI1
aI0
aI0
aI0
aI0
aI0
aI-1500
aI0
aI0
aI0
aI0
aI-960
aI-450
aI90
aI0
aI10
aI-1
aI25
aI1
aI0
aI1
aI750
aI1
aI0
aI0
aI0
aI0
aI0
aI0
aI0
aI0
aI0
aI0
aI100
aI0
aI0
aI1
aI0
aI2
aI1
aI0
aI0
aI0
aI0
aI0
aI0
aI0
aI0
aI0
aVcannon_explosive
p73
aI9
aI1
aI1
aI1
asI12907
(lp74
I13711
aI5
aI14206
aI1
aI1
aI0
aI0
aI0
aI0
aI0
aI-300
aI0
aI0
aI0
aI0
aI-144
aI-75
aI100
aI0
aI3
aI-1
aI0
aI0
aI0
aI3
aI1300
aI0
aI0
aI0
aI0
aI0
aI0
aI0
aI0
aI0
aI0
aI0
aI100
aI0
aI0
aI1
aI0
aI2
aI1
aI0
aI0
aI0
aI0
aI0
aI0
aI0
aI0
aI0
aVcannon_fury
p75
aI16
aI1
aI1
aI1
asI12908
(lp76
I13711
aI5
aNaI3
aI1
aI0
aI0
aI0
aI0
aI0
aI0
aI0
aI0
aI0
aI0
aI0
aI0
aI100
aI0
aI3
aI-1
aI0
aI0
aI0
aI1
aI750
aI0
aI0
aI0
aI0
aI0
aI0
aI0
aI0
aI0
aI0
aI0
aI-1
aI0
aI0
aI1
aI0
aI2
aI1
aI0
aI0
aI0
aI0
aI0
aI0
aI0
aI1
aI1
aVcannon_grapple_hook
p77
aI11
aI1
aI1
aI1
asI12909
(lp78
I13711
aI0
aNaI0
aI0
aI0
aI0
aI0
aI0
aI0
aI0
aI0
aI0
aI0
aI0
aI0
aI0
aI0
aI0
aF0.059999999999999998
aI0
aI0
aI0
aI0
aI0
aI0
aI0
aI0
aI0
aI0
aI0
aI0
aI0
aI0
aI0
aI0
aI0
aI-1
aI0
aI0
aI0
aI0
aI3
aI0
aI0
aI0
aI0
aI0
aI0
aI0
aI0
aI1
aI0
aVcannon_scrounger
p79
aI0
aI0
aI1
aI0
asI12910
(lp80
I13711
aI0
aNaI0
aI0
aI0
aI0
aI0
aI0
aI0
aF0.050000000000000003
aI0
aI0
aI0
aI0
aI0
aI0
aI0
aI0
aI0
aI0
aI0
aI0
aI0
aI0
aI0
aI0
aI0
aI0
aI0
aI0
aI0
aI0
aI0
aI0
aI0
aI0
aI-1
aI0
aI0
aI0
aI0
aI3
aI0
aI0
aI0
aI0
aI0
aI0
aI0
aI0
aI0
aI1
aVcannon_barrage
p81
aI0
aI0
aI1
aI0
asI12911
(lp82
I13711
aI0
aNaI0
aI0
aI0
aI0
aI0
aI0
aI0
aI0
aI0
aI0
aI0
aI0
aI0
aI0
aI0
aI0
aI0
aI0
aI0
aI0
aI0
aI0
aI0
aI0
aI0
aI0
aI4
aI0
aI0
aI0
aI0
aI1
aI4
aI2
aI-1
aI0
aI0
aI0
aI0
aI3
aI0
aI0
aI0
aI0
aI0
aI0
aI0
aI0
aI0
aI0
aVcannon_shrapnel
p83
aI0
aI0
aI1
aI0
asI2160
(lp84
I13713
aI1
aNaI1
aI0
aI0
aI0
aI0
aI0
aI0
aI0
aI0
aI0
aI0
aI0
aI0
aI0
aI90
aI0
aI2
aI6
aI0
aI0
aI0
aI1
aI0
aI0
aI0
aI0
aI26
aI0
aI0
aI1
aI0
aI1
aI3
aI0
aI-1
aI0
aF0.10000000000000001
aI1
aI1
aI1
aI1
aI0
aI0
aI0
aI0
aI0
aI0
aI0
aI0
aI0
aVcutlass_stab
p85
aI0
aI1
aI1
aI0
asI2161
(lp86
I13713
aI1
aNaI1
aI0
aI0
aI0
aI0
aI0
aI0
aI0
aI0
aI0
aI0
aI0
aI0
aI0
aI90
aI0
aI2
aI6
aI0
aI0
aI0
aI1
aI0
aI0
aI0
aI0
aI26
aI0
aI0
aI1
aI0
aI1
aI3
aI0
aI-1
aI0
aF0.10000000000000001
aI1
aI1
aI1
aI1
aI0
aI0
aI0
aI0
aI0
aI0
aI0
aI0
aI0
aVcutlass_stab
p87
aI0
aI1
aI1
aI0
asI2162
(lp88
I13713
aI1
aNaI1
aI0
aI0
aI0
aI0
aI0
aI0
aI0
aI0
aI0
aI0
aI0
aI0
aI0
aI90
aI0
aI2
aI6
aI0
aI0
aI0
aI1
aI0
aI0
aI0
aI0
aI26
aI0
aI0
aI1
aI0
aI1
aI3
aI0
aI-1
aI0
aF0.10000000000000001
aI1
aI1
aI1
aI1
aI0
aI0
aI0
aI0
aI0
aI0
aI0
aI0
aI0
aVcutlass_stab
p89
aI0
aI1
aF1.25
aI0
asI2163
(lp90
I13713
aI1
aNaI1
aI0
aI0
aI0
aI0
aI0
aI0
aI0
aI0
aI0
aI0
aI0
aI0
aI0
aI90
aI0
aI25
aI6
aI0
aI0
aI0
aI1
aI0
aI0
aI0
aI0
aI4
aI0
aI0
aI1
aI0
aI1
aI6
aI2
aI-1
aI0
aF0.10000000000000001
aI1
aI1
aI1
aI1
aI0
aI0
aI0
aI0
aI0
aI0
aI0
aI0
aI0
aVcutlass_stab
p91
aI10
aI1
aF0.75
aI0
asI2164
(lp92
I13713
aI1
aNaI1
aI0
aI0
aI0
aI0
aI0
aI0
aI0
aI0
aI0
aI0
aI0
aI0
aI0
aI90
aI0
aI18
aI6
aI0
aI0
aI0
aI1
aI0
aI0
aI0
aI0
aI7
aI0
aI0
aI1
aI0
aI1
aI12
aI0
aI-1
aI0
aF0.10000000000000001
aI1
aI1
aI1
aI1
aI0
aI0
aI0
aI0
aI0
aI0
aI0
aI0
aI0
aVcutlass_stab
p93
aI6
aI1
aF1.5
aI0
asI12405
(lp94
I13706
aI0
aNaI0
aI0
aI0
aI0
aI0
aI0
aI0
aF0.050000000000000003
aI0
aI0
aI0
aI0
aI0
aI0
aI0
aI0
aI0
aI0
aI0
aI0
aI0
aI0
aI0
aI0
aI0
aI0
aI0
aI0
aI0
aI0
aI0
aI0
aI0
aI0
aI-1
aI0
aI0
aI0
aI0
aI3
aI0
aI0
aI0
aI0
aI0
aI0
aI0
aI0
aI0
aI0
aVdagger_blade_instinct
p95
aI0
aI0
aI1
aI0
asI12406
(lp96
I13706
aI2
aI14300
aI2
aI0
aI0
aI0
aI0
aI0
aI0
aI-10
aI0
aI0
aI0
aI0
aI0
aI0
aI80
aI0
aI15
aI50
aI0
aI0
aI0
aI1
aI0
aI0
aI1
aI1
aI7
aI0
aI0
aI1
aI1
aI1
aI6
aI0
aI25
aI0
aF0.80000000000000004
aI1
aI1
aI2
aI1
aI0
aI0
aI0
aI0
aI0
aI0
aI0
aI1
aI1
aVdagger_throw
p97
aI16
aI0
aI1
aF1.8300000000000001
asI12407
(lp98
I13706
aI2
aI14301
aI4
aI0
aI0
aI0
aI0
aI0
aI0
aI-20
aI0
aI0
aI0
aI0
aI0
aI0
aI80
aI0
aI15
aI50
aI0
aI0
aI0
aI1
aI0
aI0
aI0
aI0
aI5
aI0
aI0
aI1
aI1
aI1
aI20
aI2
aI25
aI0
aF0.80000000000000004
aI1
aI1
aI2
aI1
aI0
aI0
aI0
aI0
aI0
aI0
aI0
aI1
aI1
aVdagger_adder
p99
aI8
aI0
aI1
aF1.8300000000000001
asI12408
(lp100
I13706
aI2
aNaI6
aI0
aI0
aI0
aI0
aI0
aI0
aI0
aI0
aI0
aI0
aI0
aI0
aI0
aI80
aI0
aI25
aI12
aI0
aI0
aI0
aI1
aI0
aI0
aI1
aI1
aI19
aI0
aI0
aI1
aI0
aI1
aI6
aI0
aI-1
aI0
aF0.80000000000000004
aI1
aI1
aI2
aI0
aI0
aI0
aI0
aI0
aI0
aI0
aI0
aI1
aI1
aVdagger_throw_dirt
p101
aI18
aI1
aI1
aF1.5800000000000001
asI12409
(lp102
I13706
aI2
aI14302
aI8
aI0
aI0
aI0
aI0
aI0
aI0
aI-60
aI0
aI0
aI0
aI0
aI0
aI0
aI80
aI0
aI20
aI50
aI0
aI0
aI0
aI1
aI0
aI0
aI0
aI0
aI4
aI0
aI0
aI1
aI1
aI1
aI6
aI2
aI25
aI0
aF0.80000000000000004
aI1
aI3
aI2
aI1
aI0
aI0
aI0
aI0
aI0
aI0
aI0
aI0
aI0
aVdagger_sidewinder
p103
aI10
aI0
aI1
aI1
asI12410
(lp104
I13706
aI2
aI14303
aI10
aI0
aI0
aI0
aI0
aI0
aI0
aI-100
aI0
aI0
aI0
aI0
aI0
aI0
aI80
aI0
aI45
aI50
aI0
aI0
aI0
aI1
aI0
aI2
aI1
aI0
aI0
aI0
aI0
aI1
aI0
aI0
aI0
aI0
aI25
aI0
aF0.80000000000000004
aI3
aI3
aI2
aI0
aI0
aI0
aI0
aI0
aI0
aI0
aI0
aI0
aI0
aVdagger_vipers_nest
p105
aI30
aI2
aI1
aF0.83299999999999996
asI2180
(lp106
I13713
aI1
aNaI1
aI0
aI0
aI0
aI0
aI0
aI0
aI0
aI0
aI0
aI0
aI0
aI0
aI0
aI90
aI0
aI2
aI6
aI0
aI0
aI0
aI1
aI0
aI0
aI0
aI0
aI26
aI0
aI0
aI1
aI0
aI1
aI3
aI0
aI-1
aI0
aF0.10000000000000001
aI1
aI1
aI1
aI1
aI0
aI0
aI0
aI0
aI0
aI0
aI0
aI0
aI0
aVcutlass_stab
p107
aI0
aI1
aI1
aI0
asI2181
(lp108
I13713
aI1
aNaI1
aI0
aI0
aI0
aI0
aI0
aI0
aI0
aI0
aI0
aI0
aI0
aI0
aI0
aI90
aI0
aI2
aI6
aI0
aI0
aI0
aI1
aI0
aI0
aI0
aI0
aI26
aI0
aI0
aI1
aI0
aI1
aI3
aI0
aI-1
aI0
aF0.10000000000000001
aI1
aI1
aI1
aI1
aI0
aI0
aI0
aI0
aI0
aI0
aI0
aI0
aI0
aVcutlass_stab
p109
aI0
aI1
aI1
aI0
asI2182
(lp110
I13713
aI1
aNaI1
aI0
aI0
aI0
aI0
aI0
aI0
aI0
aI0
aI0
aI0
aI0
aI0
aI0
aI90
aI0
aI20
aI10
aI10
aI0
aI0
aI1
aI1
aI1
aI0
aI0
aI14
aI0
aI0
aI1
aI0
aI1
aI12
aI0
aI-1
aI0
aF0.10000000000000001
aI1
aI1
aI1
aI1
aI0
aI0
aI0
aI0
aI0
aI0
aI0
aI0
aI0
aVcutlass_stab
p111
aI0
aI1
aF0.80000000000000004
aI0
asI2183
(lp112
I13713
aI1
aNaI1
aI0
aI0
aI0
aI0
aI0
aI0
aI0
aI0
aI0
aI0
aI0
aI0
aI0
aI90
aI0
aI15
aI6
aI0
aI0
aI0
aI1
aI0
aI0
aI0
aI0
aI26
aI0
aI0
aI1
aI0
aI1
aI3
aI0
aI-1
aI0
aF0.10000000000000001
aI4
aI1
aI1
aI1
aI0
aI0
aI0
aI0
aI0
aI0
aI0
aI0
aI0
aVcutlass_stab
p113
aI0
aI1
aF1.5
aI0
asI12653
(lp114
I13712
aI0
aNaI2
aI0
aI0
aI0
aI0
aI0
aI0
aI0
aI0
aI0
aI0
aI0
aI0
aI0
aI100
aI0
aI90
aI-1
aI0
aI0
aI0
aI0
aI0
aI0
aI0
aI0
aI31
aI0
aI0
aI0
aI0
aI0
aI5
aI0
aI-1
aI0
aI0
aI1
aI0
aI2
aI1
aF0.25
aF0.25
aI0
aI0
aI4
aI4
aI0
aI1
aI1
aVsail_come_about
p115
aI0
aI1
aI1
aI0
asI2221
(lp116
I13712
aI5
aNaI1
aI1
aI0
aI0
aI0
aI0
aI0
aI0
aI0
aI0
aI0
aI0
aI0
aI0
aI100
aI0
aI0
aI-1
aI0
aI0
aI0
aI0
aI0
aI0
aI0
aI0
aI0
aI0
aI0
aI0
aI0
aI0
aI0
aI0
aI-1
aI0
aI0
aI1
aI0
aI1
aI1
aI0
aI0
aI0
aI0
aI0
aI0
aI0
aI1
aI1
aVcannon_shoot
p117
aI6
aI1
aI1
aI0
asI2200
(lp118
I13713
aI1
aNaI1
aI0
aI0
aI0
aI0
aI0
aI0
aI0
aI0
aI0
aI0
aI0
aI0
aI0
aI90
aI0
aI2
aI6
aI0
aI0
aI0
aI1
aI0
aI0
aI0
aI0
aI26
aI0
aI0
aI1
aI0
aI1
aI3
aI0
aI-1
aI0
aF0.10000000000000001
aI1
aI1
aI1
aI1
aI0
aI0
aI0
aI0
aI0
aI0
aI0
aI0
aI0
aVcutlass_stab
p119
aI0
aI1
aI1
aI0
asI2201
(lp120
I13713
aI1
aNaI1
aI0
aI0
aI0
aI0
aI0
aI0
aI0
aI0
aI0
aI0
aI0
aI0
aI0
aI90
aI0
aI2
aI6
aI0
aI0
aI0
aI1
aI0
aI0
aI0
aI0
aI26
aI0
aI0
aI1
aI0
aI1
aI3
aI0
aI-1
aI0
aF0.10000000000000001
aI1
aI1
aI1
aI1
aI0
aI0
aI0
aI0
aI0
aI0
aI0
aI0
aI0
aVcutlass_stab
p121
aI0
aI1
aI1
aI0
asI2202
(lp122
I13713
aI1
aNaI1
aI0
aI0
aI0
aI0
aI0
aI0
aI0
aI0
aI0
aI0
aI0
aI0
aI0
aI90
aI0
aI25
aI6
aI0
aI0
aI0
aI1
aI0
aI0
aI0
aI0
aI5
aI0
aI0
aI1
aI0
aI1
aI12
aI2
aI-1
aI0
aF0.10000000000000001
aI1
aI1
aI1
aI1
aI0
aI0
aI0
aI0
aI0
aI0
aI0
aI0
aI0
aVcutlass_stab
p123
aI0
aI1
aF0.25
aI0
asI2203
(lp124
I13713
aI1
aNaI1
aI0
aI0
aI0
aI0
aI0
aI0
aI0
aI0
aI0
aI0
aI0
aI0
aI0
aI90
aI0
aI25
aI6
aI0
aI0
aI0
aI1
aI0
aI0
aI0
aI0
aI14
aI0
aI0
aI1
aI0
aI1
aI20
aI0
aI-1
aI0
aF0.10000000000000001
aI1
aI1
aI1
aI1
aI0
aI0
aI0
aI0
aI0
aI0
aI0
aI0
aI0
aVcutlass_stab
p125
aI0
aI1
aF1.25
aI0
asI12400
(lp126
I13706
aI1
aNaI1
aI0
aI0
aI0
aI0
aI0
aI0
aI-9
aI0
aI0
aI0
aI0
aI0
aI0
aI100
aI0
aF0.5
aI6
aI0
aI0
aI0
aI1
aI0
aI0
aI0
aI0
aI26
aI0
aI0
aI1
aI0
aI1
aI3
aI0
aI-1
aI0
aF0.20000000000000001
aI1
aI1
aI1
aI1
aI0
aI0
aI0
aI0
aI0
aI0
aI0
aI1
aI1
aVdagger_cut
p127
aI11
aI1
aF0.75
aF0.75
asI12401
(lp128
I13706
aI1
aNaI2
aI0
aI0
aI0
aI0
aI0
aI0
aI-26
aI0
aI0
aI0
aI0
aI0
aI0
aI100
aI0
aF0.5
aI6
aI0
aI0
aI0
aI1
aI0
aI0
aI0
aI0
aI26
aI0
aI0
aI1
aI0
aI1
aI3
aI0
aI-1
aI0
aF0.20000000000000001
aI2
aI1
aI1
aI1
aI0
aI0
aI0
aI0
aI0
aI0
aI0
aI1
aI1
aVdagger_gouge
p129
aI12
aI1
aI1
aF0.58299999999999996
asI2220
(lp130
I13712
aI5
aNaI1
aI1
aI0
aI0
aI0
aI0
aI0
aI0
aI0
aI0
aI0
aI0
aI0
aI0
aI100
aI0
aI0
aI-1
aI0
aI0
aI0
aI0
aI0
aI0
aI0
aI0
aI0
aI0
aI0
aI0
aI0
aI0
aI0
aI0
aI-1
aI0
aI0
aI1
aI0
aI1
aI1
aI0
aI0
aI0
aI0
aI0
aI0
aI0
aI1
aI1
aVcannon_shoot
p131
aI6
aI1
aI1
aI0
asI12402
(lp132
I13706
aI1
aNaI2
aI0
aI0
aI0
aI0
aI0
aI0
aI-44
aI0
aI0
aI0
aI0
aI0
aI0
aI100
aI0
aF0.5
aI6
aI0
aI0
aI0
aI1
aI0
aI0
aI0
aI0
aI26
aI0
aI0
aI1
aI0
aI1
aI3
aI0
aI-1
aI0
aF0.56000000000000005
aI1
aI2
aI1
aI1
aI0
aI0
aI0
aI0
aI0
aI0
aI0
aI0
aI0
aVdagger_swipe
p133
aI13
aI1
aF1.5
aF0.95799999999999996
asI13000
(lp134
I0
aI0
aNaI0
aI0
aI0
aI0
aI0
aI0
aI0
aI0
aI0
aI0
aI0
aI0
aI0
aI0
aI100
aI0
aI50
aI0
aI0
aI0
aI0
aI0
aI0
aI0
aI0
aI0
aI0
aI0
aI1
aI0
aI0
aI0
aI0
aI0
aI-1
aI0
aF0.40000000000000002
aI1
aI0
aI1
aI1
aI0
aI0
aI0
aI0
aI0
aI0
aI0
aI1
aI0
aVicon_potion_tonic
p135
aI0
aI1
aI1
aF0.93999999999999995
asI12403
(lp136
I13706
aI1
aNaI3
aI0
aI0
aI0
aI0
aI0
aI0
aI-68
aI0
aI0
aI0
aI0
aI0
aI0
aI100
aI0
aF0.5
aI6
aI0
aI0
aI0
aI1
aI0
aI0
aI0
aI0
aI26
aI0
aI0
aI1
aI0
aI1
aI3
aI0
aI-1
aI0
aF0.20000000000000001
aI3
aI2
aI1
aI1
aI0
aI0
aI0
aI0
aI0
aI0
aI0
aI0
aI0
aVdagger_impale
p137
aI14
aI1
aI2
aF1.5
asI12404
(lp138
I13706
aI0
aNaI0
aI0
aI0
aI0
aI0
aI0
aI0
aI0
aI0
aI0
aI0
aI0
aI0
aI0
aI0
aI0
aF0.070000000000000007
aI0
aI0
aI0
aI0
aI0
aI0
aI0
aI0
aI0
aI0
aI0
aI0
aI0
aI0
aI0
aI0
aI0
aI-1
aI0
aI0
aI0
aI0
aI3
aI0
aI0
aI0
aI0
aI0
aI0
aI0
aI0
aI0
aI0
aVcutlass_finesse
p139
aI0
aI0
aI1
aI0
asI12917
(lp140
I13711
aI5
aI14211
aI1
aI1
aI0
aI0
aI0
aI0
aI0
aI-200
aI0
aI0
aI0
aI0
aI-150
aI-120
aI100
aI0
aI2
aI-1
aI15
aI1
aI0
aI1
aI400
aI1
aI0
aI0
aI0
aI0
aI0
aI0
aI0
aI0
aI0
aI0
aI100
aI0
aI0
aI1
aI0
aI0
aI0
aI0
aI0
aI0
aI0
aI0
aI0
aI0
aI0
aI0
aVflame_cloud
p141
aI9
aI1
aI1
aI1
asI2240
(lp142
I13703
aI1
aNaI1
aI0
aI0
aI0
aI0
aI0
aI0
aI-30
aI0
aI0
aI0
aI0
aI0
aI0
aI80
aI0
aI2
aI6
aI0
aI0
aI0
aI1
aI0
aI0
aI0
aI0
aI7
aI0
aI0
aI1
aI0
aI1
aI6
aI0
aI-1
aI0
aF0.22
aI1
aI1
aI1
aI1
aI0
aI0
aI0
aI0
aI0
aI0
aI0
aI0
aI0
aVsword
p143
aI1
aI1
aI1
aI1
asI2241
(lp144
I13703
aI1
aNaI1
aI0
aI0
aI0
aI0
aI0
aI0
aI-30
aI0
aI0
aI0
aI0
aI0
aI0
aI100
aI0
aI2
aI6
aI0
aI0
aI0
aI1
aI0
aI0
aI0
aI0
aI26
aI0
aI0
aI1
aI0
aI1
aI3
aI0
aI-1
aI0
aF0.22
aI2
aI1
aI1
aI1
aI0
aI0
aI0
aI0
aI0
aI0
aI0
aI0
aI0
aVsword
p145
aI1
aI1
aF1.2
aI1
asI2242
(lp146
I13703
aI1
aNaI1
aI0
aI0
aI0
aI0
aI0
aI0
aI-30
aI0
aI0
aI0
aI0
aI0
aI0
aI95
aI0
aI2
aI10
aI0
aI0
aI0
aI1
aI0
aI3
aI0
aI0
aI7
aI0
aI0
aI1
aI0
aI1
aI5
aI0
aI-1
aI0
aF0.22
aI1
aI1
aI1
aI1
aI0
aI0
aI0
aI0
aI0
aI0
aI0
aI0
aI0
aVsword
p147
aI1
aI1
aF1.2
aI1
asI2243
(lp148
I13703
aI1
aNaI1
aI0
aI0
aI0
aI0
aI0
aI0
aI-30
aI0
aI0
aI0
aI0
aI0
aI0
aI100
aI0
aI2
aI10
aI0
aI0
aI0
aI1
aI0
aI3
aI0
aI0
aI26
aI0
aI0
aI1
aI0
aI1
aI3
aI0
aI-1
aI0
aF0.22
aI1
aI1
aI1
aI1
aI0
aI0
aI0
aI0
aI0
aI0
aI0
aI0
aI0
aVsword
p149
aI1
aI1
aF0.75
aI1
asI2244
(lp150
I13703
aI1
aNaI1
aI0
aI0
aI0
aI0
aI0
aI0
aI-30
aI0
aI0
aI0
aI0
aI0
aI0
aI70
aI0
aI2
aI6
aI0
aI0
aI0
aI1
aI0
aI0
aI0
aI0
aI26
aI0
aI0
aI1
aI0
aI1
aI3
aI0
aI-1
aI0
aF0.22
aI1
aI1
aI1
aI1
aI0
aI0
aI0
aI0
aI0
aI0
aI0
aI0
aI0
aVsword
p151
aI1
aI1
aI1
aI1
asI2245
(lp152
I13703
aI1
aNaI1
aI0
aI0
aI0
aI0
aI0
aI0
aI-30
aI0
aI0
aI0
aI0
aI0
aI0
aI100
aI0
aI2
aI6
aI0
aI0
aI0
aI1
aI0
aI0
aI0
aI0
aI26
aI0
aI0
aI1
aI0
aI1
aI3
aI0
aI-1
aI0
aF0.22
aI3
aI1
aI1
aI1
aI0
aI0
aI0
aI0
aI0
aI0
aI0
aI0
aI0
aVsword
p153
aI1
aI1
aI1
aI1
asI2246
(lp154
I13703
aI1
aNaI1
aI0
aI0
aI0
aI0
aI0
aI0
aI-30
aI0
aI0
aI0
aI0
aI0
aI0
aI50
aI0
aI10
aI6
aI0
aI0
aI0
aI1
aI0
aI0
aI0
aI0
aI4
aI0
aI0
aI1
aI0
aI1
aI5
aI2
aI-1
aI0
aF0.22
aI1
aI1
aI1
aI1
aI0
aI0
aI0
aI0
aI0
aI0
aI0
aI0
aI0
aVsword
p155
aI1
aI1
aF1.5
aI1
asI2247
(lp156
I13703
aI1
aNaI1
aI0
aI0
aI0
aI0
aI0
aI0
aI-30
aI0
aI0
aI0
aI0
aI0
aI0
aI100
aI0
aI6
aI6
aI0
aI0
aI0
aI1
aI0
aI0
aI0
aI0
aI7
aI0
aI0
aI1
aI0
aI1
aI4
aI0
aI-1
aI0
aF0.22
aI3
aI1
aI1
aI1
aI0
aI0
aI0
aI0
aI0
aI0
aI0
aI0
aI0
aVsword
p157
aI1
aI1
aI2
aI1
asI2248
(lp158
I13703
aI1
aNaI1
aI0
aI0
aI0
aI0
aI0
aI0
aI-30
aI0
aI0
aI0
aI0
aI0
aI0
aI100
aI0
aI10
aI6
aI0
aI0
aI0
aI1
aI0
aI0
aI0
aI0
aI14
aI0
aI0
aI1
aI0
aI1
aI6
aI0
aI-1
aI0
aF0.22
aI1
aI1
aI1
aI1
aI0
aI0
aI0
aI0
aI0
aI0
aI0
aI0
aI0
aVsword
p159
aI1
aI1
aF0.75
aI1
asI2250
(lp160
I13703
aI1
aNaI1
aI0
aI0
aI0
aI0
aI0
aI0
aI0
aI0
aI0
aI0
aI0
aI0
aI0
aI100
aI0
aI2
aI7
aI0
aI0
aI0
aI1
aI0
aI0
aI0
aI0
aI0
aI0
aI0
aI0
aI0
aI0
aI0
aI0
aI-1
aI0
aF0.22
aI1
aI1
aI1
aI1
aI0
aI0
aI0
aI0
aI0
aI0
aI0
aI0
aI0
aVsword
p161
aI1
aI1
aI1
aI1
asI12919
(lp162
I13711
aI5
aI14214
aI1
aI1
aI0
aI0
aI0
aI0
aI0
aI-750
aI0
aI0
aI0
aI0
aI-30
aI-20
aI100
aI0
aI2
aI-1
aI5
aI1
aI0
aI5
aI650
aI1
aI0
aI0
aI0
aI0
aI0
aI0
aI0
aI0
aI0
aI0
aI100
aI0
aI0
aI1
aI0
aI0
aI0
aI0
aI0
aI0
aI0
aI0
aI0
aI0
aI0
aI0
aVknives
p163
aI0
aI1
aI1
aI1
asI2252
(lp164
I13703
aI1
aNaI1
aI0
aI0
aI0
aI0
aI0
aI0
aI0
aI0
aI0
aI0
aI0
aI0
aI0
aI100
aI0
aI2
aI7
aI0
aI0
aI0
aI1
aI0
aI0
aI0
aI0
aI0
aI0
aI0
aI0
aI0
aI0
aI0
aI0
aI-1
aI0
aF0.44
aI1
aI1
aI1
aI1
aI0
aI0
aI0
aI0
aI0
aI0
aI0
aI0
aI0
aVsword
p165
aI1
aI1
aI1
aI1
asI2253
(lp166
I13703
aI1
aNaI1
aI0
aI0
aI0
aI0
aI0
aI0
aI0
aI0
aI0
aI0
aI0
aI0
aI0
aI100
aI0
aI6
aI7
aI0
aI0
aI0
aI1
aI0
aI0
aI0
aI0
aI4
aI0
aI0
aI0
aI0
aI1
aI10
aI2
aI-1
aI0
aF0.22
aI1
aI1
aI1
aI1
aI0
aI0
aI0
aI0
aI0
aI0
aI0
aI0
aI0
aVsword
p167
aI1
aI1
aI1
aI1
asI2254
(lp168
I13703
aI1
aNaI1
aI0
aI0
aI0
aI0
aI0
aI0
aI0
aI0
aI0
aI0
aI0
aI0
aI0
aI75
aI0
aI8
aI7
aI0
aI0
aI0
aI1
aI0
aI0
aI0
aI0
aI4
aI0
aI0
aI0
aI0
aI1
aI10
aI2
aI-1
aI0
aF0.22
aI2
aI1
aI1
aI1
aI0
aI0
aI0
aI0
aI0
aI0
aI0
aI0
aI0
aVsword
p169
aI1
aI1
aF0.75
aI1
asI12657
(lp170
I13712
aI0
aNaI0
aI0
aI0
aI0
aI0
aI0
aI0
aI0
aI0
aI0
aI0
aI0
aI0
aI0
aI0
aI0
aI0
aI0
aI0
aI0
aI0
aI0
aI0
aI0
aI0
aI0
aI0
aI0
aI0
aI0
aI0
aI0
aI0
aI0
aI-1
aI0
aI0
aI0
aI0
aI3
aI0
aF0.040000000000000001
aF0.040000000000000001
aF0.040000000000000001
aF0.040000000000000001
aI0
aI0
aI0
aI1
aI1
aVsail_wind_catcher
p171
aI0
aI1
aI1
aI0
asI2256
(lp172
I13703
aI1
aNaI1
aI0
aI0
aI0
aI0
aI0
aI0
aI0
aI0
aI0
aI0
aI0
aI0
aI0
aI80
aI0
aI10
aI7
aI0
aI0
aI0
aI1
aI0
aI0
aI1
aI1
aI0
aI0
aI0
aI0
aI0
aI0
aI0
aI0
aI-1
aI0
aF0.80000000000000004
aI1
aI1
aI1
aI1
aI0
aI0
aI0
aI0
aI0
aI0
aI0
aI0
aI0
aVsword
p173
aI1
aI1
aF0.75
aI1
asI12920
(lp174
I13711
aI5
aI14215
aI1
aI1
aI0
aI0
aI0
aI0
aI0
aI0
aI0
aI0
aI0
aI0
aI-100
aI-50
aI100
aI0
aI2
aI-1
aI15
aI1
aI0
aI1
aI400
aI1
aI0
aI0
aI0
aI0
aI0
aI0
aI0
aI0
aI0
aI0
aI100
aI0
aI0
aI1
aI0
aI0
aI0
aI0
aI0
aI0
aI0
aI0
aI0
aI0
aI0
aI0
aVmine
p175
aI0
aI1
aI1
aI1
asI12500
(lp176
I13707
aI4
aNaI2
aI1
aI0
aI0
aI0
aI0
aI0
aI-20
aI0
aI0
aI0
aI0
aI0
aI0
aI100
aI0
aI2
aI200
aI0
aI1
aI0
aI1
aI0
aI0
aI0
aI0
aI0
aI0
aI0
aI0
aI0
aI0
aI0
aI0
aI-1
aI0
aI0
aI1
aI1
aI1
aI1
aI0
aI0
aI0
aI0
aI0
aI0
aI0
aI1
aI1
aVgrenade_grenadier
p177
aI0
aI2
aI1
aI2
asI2261
(lp178
I13709
aI3
aNaI4
aI0
aI0
aI0
aI0
aI-8
aI0
aI-65
aI0
aI0
aI0
aI0
aI0
aI0
aI100
aI0
aI4
aI130
aI0
aI0
aI0
aI1
aI0
aI0
aI0
aI0
aI0
aI0
aI0
aI1
aI0
aI0
aI0
aI0
aI-1
aI0
aF0.59999999999999998
aI1
aI0
aI2
aI1
aI0
aI0
aI0
aI0
aI0
aI0
aI0
aI1
aI1
aVvoodoo_poke
p179
aI20
aI2
aF0.5
aF2.0800000000000001
asI12502
(lp180
I13707
aI4
aI14101
aF1.5
aI1
aI0
aI0
aI0
aI0
aI0
aI-50
aI0
aI0
aI0
aI0
aI0
aI0
aI100
aI0
aI1
aI50
aI20
aI1
aI0
aI1
aI40
aI1
aI0
aI0
aI7
aI0
aI0
aI0
aI0
aI1
aI10
aI0
aI25
aI0
aI0
aI1
aI1
aI2
aI1
aI0
aI0
aI0
aI0
aI0
aI0
aI0
aI1
aI1
aVgrenade_flameburst
p181
aI0
aI2
aI1
aI0
asI12503
(lp182
I13707
aI4
aI14102
aI2
aI1
aI0
aI0
aI0
aI0
aI0
aI-50
aI0
aI0
aI0
aI0
aI0
aI0
aI100
aI0
aI1
aI50
aI10
aI1
aI0
aI1
aI40
aI1
aI0
aI0
aI3
aI0
aI0
aI0
aI0
aI1
aI20
aI2
aI25
aI0
aI0
aI1
aI1
aI2
aI1
aI0
aI0
aI0
aI0
aI0
aI0
aI0
aI0
aI0
aVgrenade_explosion
p183
aI9
aI2
aI1
aI0
asI12504
(lp184
I13707
aI4
aI14103
aI2
aI1
aI0
aI0
aI0
aI0
aI0
aI0
aI0
aI0
aI0
aI0
aI0
aI0
aI100
aI0
aI1
aI50
aI14
aI1
aI0
aI1
aI40
aI1
aI0
aI0
aI9
aI0
aI0
aI0
aI0
aI1
aI10
aI0
aI15
aI0
aI0
aI1
aI2
aI2
aI1
aI0
aI0
aI0
aI0
aI0
aI0
aI0
aI0
aI0
aVgrenade_smokecloud
p185
aI0
aI2
aI1
aI0
asI12505
(lp186
I13707
aI4
aI14105
aI2
aI1
aI0
aI0
aI0
aI0
aI0
aI-150
aI0
aI0
aI0
aI0
aI0
aI0
aI100
aI0
aI1
aI10
aI20
aI1
aI0
aI1
aI40
aI1
aI0
aI0
aI7
aI0
aI0
aI0
aI0
aI1
aI3
aI0
aI10
aI0
aI0
aI1
aI2
aI2
aI0
aI0
aI0
aI0
aI0
aI0
aI0
aI0
aI0
aI0
aVgrenade_siege
p187
aI0
aI2
aI1
aI0
aF2.6600000000000001
asI12506
(lp188
I13707
aI4
aNaI2
aI1
aI0
aI0
aI0
aI0
aI0
aI-40
aI0
aI0
aI0
aI0
aI0
aI0
aI100
aI0
aI2
aI400
aI0
aI1
aI0
aI1
aI0
aI0
aI0
aI0
aI0
aI0
aI0
aI0
aI0
aI0
aI0
aI0
aI-1
aI2
aI0
aI1
aI1
aI1
aI0
aI0
aI0
aI0
aI0
aI0
aI0
aI0
aI1
aI1
aVgrenade_strength
p189
aI0
aI2
aI1
aF1.875
asI12507
(lp190
I13707
aI0
aNaI0
aI0
aI10
aI0
aI0
aI0
aI0
aI0
aI0
aI0
aI0
aI0
aI0
aI0
aI0
aI0
aI0
aI0
aI0
aI0
aI0
aI0
aI0
aI0
aI0
aI0
aI0
aI0
aI0
aI0
aI0
aI0
aI0
aI0
aI-1
aI0
aI0
aI0
aI0
aI3
aI0
aI0
aI0
aI0
aI0
aI0
aI0
aI0
aI1
aI1
aVgrenade_determination2
p191
aI0
aI0
aI1
aI0
asI12508
(lp192
I13707
aI0
aNaI0
aI0
aI0
aI0
aI0
aI0
aI0
aI0
aI0
aI0
aI0
aI0
aI0
aI0
aI0
aI0
aI0
aI0
aF0.10000000000000001
aI0
aI0
aI0
aI0
aI0
aI0
aI0
aI0
aI0
aI0
aI0
aI0
aI0
aI0
aI0
aI-1
aI0
aI0
aI0
aI0
aI3
aI0
aI0
aI0
aI0
aI0
aI0
aI0
aI0
aI0
aI0
aVgrenade_demolition
p193
aI0
aI0
aI1
aI0
asI12509
(lp194
I13707
aI0
aNaI0
aI0
aF0.029999999999999999
aI0
aI0
aI0
aI0
aI0
aI0
aI0
aI0
aI0
aI0
aI0
aI0
aI0
aI0
aI0
aI0
aI0
aI0
aI0
aI0
aI0
aI0
aI0
aI0
aI0
aI0
aI0
aI0
aI0
aI0
aI0
aI-1
aI0
aI0
aI0
aI0
aI3
aI0
aI0
aI0
aI0
aI0
aI0
aI0
aI0
aI0
aI0
aVgrenade_determination
p195
aI0
aI0
aI1
aI0
asI12510
(lp196
I13707
aI0
aNaI0
aI0
aI0
aI0
aI0
aI0
aI0
aI0
aI0
aI0
aI0
aI0
aI0
aI0
aI0
aI0
aI0
aI0
aI0
aI0
aI0
aI0
aI0
aI0
aI0
aI0
aI0
aI0
aI0
aI0
aI0
aI0
aF0.10000000000000001
aI0
aI-1
aI0
aI0
aI0
aI0
aI3
aI0
aI0
aI0
aI0
aI0
aI0
aI0
aI0
aI0
aI0
aVcannon_toughness
p197
aI0
aI0
aI1
aI0
asI12000
(lp198
I13702
aI1
aNaI1
aI0
aI0
aI0
aI0
aI0
aI0
aI-5
aI0
aI0
aI0
aI0
aI0
aI0
aI80
aI0
aI1
aI6
aI0
aI0
aI0
aI1
aI0
aI0
aI0
aI0
aI0
aI0
aI0
aI1
aI0
aI1
aI0
aI0
aI-1
aI0
aF0.10000000000000001
aI1
aI1
aI1
aI1
aI0
aI0
aI0
aI0
aI0
aI0
aI0
aI1
aI1
aVfist
p199
aI0
aI1
aI1
aI1
asI12001
(lp200
I13702
aI1
aNaI1
aI0
aI0
aI0
aI0
aI0
aI0
aI-10
aI0
aI0
aI0
aI0
aI0
aI0
aI100
aI0
aF0.5
aI6
aI0
aI0
aI0
aI1
aI0
aI0
aI0
aI0
aI26
aI0
aI0
aI1
aI0
aI0
aI0
aI0
aI-1
aI0
aF0.10000000000000001
aI1
aI2
aI1
aI1
aI0
aI0
aI0
aI0
aI0
aI0
aI0
aI0
aI0
aVfist
p201
aI0
aI1
aI1
aI1
asI12002
(lp202
I13702
aI1
aNaI2
aI0
aI0
aI0
aI0
aI0
aI0
aI-40
aI0
aI0
aI0
aI0
aI0
aI0
aI100
aI0
aI1
aI6
aI0
aI0
aI0
aI1
aI0
aI0
aI0
aI0
aI0
aI0
aI0
aI1
aI0
aI0
aI0
aI0
aI-1
aI0
aF0.10000000000000001
aI1
aI2
aI1
aI1
aI0
aI0
aI0
aI0
aI0
aI0
aI0
aI0
aI0
aVfist
p203
aI0
aI1
aI1
aI1
asI12003
(lp204
I13702
aI1
aNaI2
aI0
aI0
aI0
aI0
aI0
aI0
aI-50
aI0
aI0
aI0
aI0
aI0
aI0
aI100
aI0
aI1
aI6
aI0
aI0
aI0
aI1
aI0
aI0
aI0
aI0
aI26
aI0
aI0
aI1
aI0
aI1
aI0
aI0
aI-1
aI0
aF0.10000000000000001
aI1
aI3
aI1
aI1
aI0
aI0
aI0
aI0
aI0
aI0
aI0
aI0
aI0
aVfist
p205
aI0
aI1
aI1
aI1
asI12004
(lp206
I13702
aI1
aNaI3
aI0
aI-10
aI0
aI0
aI0
aI0
aI-100
aI0
aI0
aI0
aI0
aI0
aI0
aI100
aI0
aI1
aI6
aI0
aI0
aI0
aI1
aI0
aI0
aI0
aI0
aI7
aI0
aI0
aI1
aI0
aI1
aI0
aI0
aI-1
aI0
aF0.10000000000000001
aI1
aI3
aI1
aI1
aI0
aI0
aI0
aI0
aI0
aI0
aI0
aI0
aI0
aVfist
p207
aI0
aI1
aI1
aI1
asI12005
(lp208
I13702
aI1
aNaI4
aI0
aI0
aI0
aI0
aI0
aI0
aI-100
aI0
aI0
aI0
aI0
aI0
aI0
aI50
aI0
aI1
aI6
aI0
aI0
aI0
aI1
aI0
aI0
aI0
aI0
aI0
aI0
aI0
aI1
aI0
aI0
aI0
aI0
aI-1
aI0
aF0.10000000000000001
aI1
aI3
aI1
aI1
aI0
aI0
aI0
aI0
aI0
aI0
aI0
aI0
aI0
aVfist
p209
aI0
aI1
aI1
aI1
asI12006
(lp210
I13702
aI3
aNaI0
aI0
aI0
aI0
aI0
aI-20
aI0
aI0
aI0
aI0
aI0
aI0
aI0
aI0
aI100
aI0
aI10
aI6
aI0
aI0
aI0
aI1
aI0
aI0
aI0
aI0
aI0
aI0
aI0
aI1
aI0
aI0
aI0
aI0
aI-1
aI0
aF0.10000000000000001
aI1
aI1
aI2
aI1
aI0
aI0
aI0
aI0
aI0
aI0
aI0
aI0
aI0
aVfist
p211
aI0
aI1
aI1
aI1
asI12007
(lp212
I13702
aI0
aNaI0
aI0
aI0
aI0
aI0
aI0
aI0
aI0
aI0
aI0
aI0
aI0
aI0
aI0
aI0
aI0
aI0
aI0
aI0
aI0
aI0
aI0
aI0
aI0
aI0
aI0
aI0
aI0
aI0
aI0
aI0
aI0
aI0
aI0
aI-1
aI0
aI0
aI0
aI0
aI3
aI1
aI0
aI0
aI0
aI0
aI0
aI0
aI0
aI0
aI0
aVfist
p213
aI0
aI0
aI1
aI0
asI12008
(lp214
I13702
aI0
aNaI0
aI0
aI0
aI0
aI0
aI0
aI0
aI0
aI0
aI0
aI0
aI0
aI0
aI0
aI0
aI0
aI0
aI0
aI0
aI0
aI0
aI0
aI0
aI0
aI0
aI0
aI0
aI0
aI0
aI0
aI0
aI0
aI0
aI0
aI-1
aI0
aI0
aI0
aI0
aI3
aI1
aI0
aI0
aI0
aI0
aI0
aI0
aI0
aI0
aI0
aVfist
p215
aI0
aI0
aI1
aI0
asI12009
(lp216
I13702
aI0
aNaI0
aI0
aI0
aI0
aI0
aI0
aI0
aI0
aI0
aI0
aI0
aI0
aI0
aI0
aI0
aI0
aI0
aI0
aI0
aI0
aI0
aI0
aI0
aI0
aI0
aI0
aI0
aI0
aI0
aI0
aI0
aI0
aI0
aI0
aI-1
aI0
aI0
aI0
aI0
aI3
aI1
aI0
aI0
aI0
aI0
aI0
aI0
aI0
aI0
aI0
aVfist
p217
aI0
aI0
aI1
aI0
asI2282
(lp218
I13706
aI2
aNaI1
aI0
aI0
aI0
aI0
aI0
aI0
aI0
aI0
aI0
aI0
aI0
aI0
aI0
aI80
aI0
aI30
aI100
aI0
aI0
aI0
aI1
aI0
aI0
aI0
aI0
aI14
aI0
aI0
aI1
aI1
aI1
aI8
aI0
aI-1
aI0
aF0.80000000000000004
aI1
aI3
aI2
aI1
aI0
aI0
aI0
aI0
aI0
aI0
aI0
aI0
aI0
aVdagger_sidewinder
p219
aI10
aI0
aF0.75
aI1
asI2283
(lp220
I13706
aI2
aNaI1
aI0
aI0
aI0
aI0
aI0
aI0
aI0
aI0
aI0
aI0
aI0
aI0
aI0
aI80
aI0
aI30
aI100
aI0
aI0
aI0
aI1
aI0
aI0
aI1
aI1
aI26
aI0
aI0
aI1
aI1
aI1
aI3
aI0
aI-1
aI0
aF0.80000000000000004
aI1
aI3
aI2
aI1
aI0
aI0
aI0
aI0
aI0
aI0
aI0
aI0
aI0
aVdagger_throw
p221
aI16
aI0
aI1
aI1
asI2290
(lp222
I13703
aI1
aNaI1
aI0
aI0
aI0
aI0
aI0
aI0
aI0
aI0
aI0
aI0
aI0
aI0
aI0
aI100
aI0
aI5
aI6
aI0
aI0
aI0
aI1
aI0
aI0
aI0
aI0
aI0
aI0
aI0
aI0
aI0
aI0
aI0
aI0
aI-1
aI0
aF0.45000000000000001
aI6
aI1
aI1
aI1
aI0
aI0
aI0
aI0
aI0
aI0
aI0
aI0
aI0
aVsword
p223
aI1
aI1
aI1
aI1
asI2291
(lp224
I13703
aI1
aNaI1
aI0
aI0
aI0
aI0
aI0
aI0
aI0
aI0
aI0
aI0
aI0
aI0
aI0
aI90
aI0
aI15
aI6
aI15
aI0
aI0
aI1
aI1
aI1
aI0
aI0
aI0
aI0
aI0
aI0
aI0
aI0
aI0
aI0
aI-1
aI0
aF0.28999999999999998
aI4
aI1
aI1
aI1
aI0
aI0
aI0
aI0
aI0
aI0
aI0
aI0
aI0
aVsword
p225
aI29
aI1
aI2
aI1
asI2292
(lp226
I13703
aI1
aNaI1
aI0
aI0
aI0
aI0
aI0
aI0
aI0
aI0
aI0
aI0
aI0
aI0
aI0
aI100
aI0
aI12
aI6
aI0
aI0
aI0
aI1
aI0
aI0
aI0
aI0
aI0
aI0
aI0
aI0
aI0
aI0
aI0
aI0
aI-1
aI0
aF0.62
aI5
aI1
aI1
aI1
aI0
aI0
aI0
aI0
aI0
aI0
aI0
aI0
aI0
aVsword
p227
aI1
aI1
aF1.25
aI1
asI12914
(lp228
I13711
aI5
aI14209
aI1
aI1
aI0
aI0
aI0
aI0
aI0
aI-150
aI0
aI0
aI0
aI0
aI0
aI-20
aI100
aI0
aI2
aI-1
aI10
aI1
aI0
aI1
aI320
aI1
aI0
aI0
aI0
aI0
aI0
aI0
aI0
aI0
aI0
aI0
aI100
aI0
aI0
aI1
aI0
aI0
aI0
aI0
aI0
aI0
aI0
aI0
aI0
aI0
aI0
aI0
aVgas_cloud
p229
aI0
aI1
aI1
aI1
asI2294
(lp230
I13703
aI1
aNaI1
aI0
aI0
aI0
aI0
aI0
aI0
aI0
aI0
aI0
aI0
aI0
aI0
aI0
aI100
aI0
aI5
aI6
aI0
aI0
aI0
aI1
aI0
aI0
aI0
aI0
aI0
aI0
aI0
aI0
aI0
aI0
aI0
aI0
aI-1
aI0
aF0.40000000000000002
aI2
aI1
aI1
aI1
aI0
aI0
aI0
aI0
aI0
aI0
aI0
aI0
aI0
aVsword
p231
aI1
aI1
aI1
aI1
asI2260
(lp232
I13709
aI3
aNaI0
aI0
aI0
aI0
aI0
aI0
aI0
aI0
aI0
aI0
aI0
aI0
aI0
aI0
aI100
aI0
aI0
aI0
aI0
aI0
aI1
aI1
aI0
aI0
aI0
aI0
aI0
aI0
aI1
aI0
aI0
aI0
aI0
aI0
aI-1
aI0
aF0.10000000000000001
aI1
aI0
aI1
aI1
aI0
aI0
aI0
aI0
aI0
aI0
aI0
aI1
aI1
aVvoodoo_hasten
p233
aI0
aI2
aI1
aF2.625
asI12501
(lp234
I13707
aI4
aI14100
aF1.5
aI1
aI0
aI0
aI0
aI0
aI0
aI-90
aI0
aI0
aI0
aI0
aI0
aI0
aI100
aI0
aI1
aI50
aI10
aI1
aI0
aI1
aI40
aI1
aI0
aI0
aI0
aI0
aI0
aI0
aI0
aI0
aI0
aI0
aI50
aI0
aI0
aI1
aI1
aI2
aI1
aI0
aI0
aI0
aI0
aI0
aI0
aI0
aI1
aI1
aVgrenade_throw
p235
aI0
aI2
aI1
aI0
asI2251
(lp236
I13703
aI1
aNaI1
aI0
aI0
aI0
aI0
aI0
aI0
aI0
aI0
aI0
aI0
aI0
aI0
aI0
aI80
aI0
aI2
aI7
aI0
aI0
aI0
aI1
aI0
aI0
aI0
aI0
aI0
aI0
aI0
aI0
aI0
aI0
aI0
aI0
aI-1
aI0
aF0.22
aI2
aI1
aI1
aI1
aI0
aI0
aI0
aI0
aI0
aI0
aI0
aI0
aI0
aVsword
p237
aI1
aI1
aF0.75
aI1
asI12915
(lp238
I13711
aI5
aI14210
aI1
aI1
aI0
aI0
aI0
aI0
aI0
aI-250
aI0
aI0
aI0
aI0
aI-70
aI-30
aI100
aI0
aI2
aI-1
aI5
aI1
aI0
aI4
aI450
aI1
aI0
aI0
aI0
aI0
aI0
aI0
aI0
aI0
aI0
aI0
aI100
aI0
aI0
aI1
aI0
aI0
aI0
aI0
aI0
aI0
aI0
aI0
aI0
aI0
aI0
aI0
aVskull_ammo
p239
aI0
aI1
aI1
aI1
asI13100
(lp240
I13705
aI1
aNaI1
aI0
aI0
aI0
aI0
aI0
aI0
aI-35
aI0
aI0
aI0
aI0
aI0
aI0
aI80
aI0
aI3
aI150
aI0
aI0
aI0
aI1
aI0
aI0
aI0
aI0
aI0
aI0
aI0
aI1
aI1
aI0
aI0
aI0
aI-1
aI0
aF0.10000000000000001
aI1
aI1
aI1
aI1
aI0
aI0
aI0
aI0
aI0
aI0
aI0
aI0
aI0
aVpistol
p241
aI0
aI0
aF0.59999999999999998
aI1
asI13101
(lp242
I13705
aI2
aNaI1
aI0
aI0
aI0
aI0
aI0
aI0
aI-40
aI0
aI0
aI0
aI0
aI0
aI0
aI90
aI0
aF0.5
aI10
aI0
aI0
aI0
aI1
aI0
aI0
aI0
aI0
aI26
aI0
aI0
aI1
aI0
aI1
aI3
aI0
aI-1
aI0
aF0.10000000000000001
aI1
aI1
aI1
aI1
aI0
aI0
aI0
aI0
aI0
aI0
aI0
aI0
aI0
aVpistol
p243
aI2
aI1
aI1
aI1
asI13102
(lp244
I13705
aI2
aNaI2
aI0
aI0
aI0
aI0
aI0
aI0
aI-60
aI0
aI0
aI0
aI0
aI0
aI0
aI70
aI0
aI10
aI10
aI0
aI0
aI0
aI1
aI0
aI0
aI0
aI0
aI26
aI0
aI0
aI1
aI0
aI1
aI3
aI0
aI-1
aI0
aF0.10000000000000001
aI4
aI2
aI2
aI1
aI0
aI0
aI0
aI0
aI0
aI0
aI0
aI0
aI0
aVpistol
p245
aI2
aI1
aF1.5
aI0
asI13103
(lp246
I13705
aI2
aNaI2
aI0
aI0
aI0
aI0
aI0
aI0
aI-15
aI0
aI0
aI0
aI0
aI0
aI0
aI90
aI0
aI15
aI6
aI0
aI0
aI0
aI1
aI0
aI0
aI0
aI0
aI7
aI0
aI0
aI1
aI0
aI1
aI10
aI0
aI-1
aI0
aF0.10000000000000001
aI1
aI2
aI2
aI1
aI0
aI0
aI0
aI0
aI0
aI0
aI0
aI0
aI0
aVpistol
p247
aI6
aI1
aF0.75
aI0
asI12916
(lp248
I13711
aI5
aI14212
aI1
aI1
aI0
aI0
aI0
aI0
aI0
aI-150
aI0
aI0
aI0
aI0
aI-150
aI-120
aI100
aI0
aI3
aI-1
aI10
aI1
aI0
aI3
aI1300
aI1
aI0
aI0
aI2
aI0
aI0
aI0
aI0
aI1
aI10
aI2
aI100
aI0
aF0.5
aI1
aI0
aI2
aI0
aI0
aI0
aI0
aI0
aI0
aI0
aI0
aI0
aI0
aVcannon_flaming_skull
p249
aI9
aI1
aI1
aI1
asI12600
(lp250
I13709
aI3
aNaI0
aI0
aI0
aI0
aI0
aI0
aI0
aI0
aI0
aI0
aI0
aI0
aI0
aI0
aI100
aI0
aF0.5
aI6
aI0
aI0
aI1
aI1
aI0
aI0
aI0
aI0
aI18
aI0
aI0
aI1
aI0
aI0
aI-1
aI0
aI-1
aI0
aF0.10000000000000001
aI1
aI0
aI1
aI1
aI0
aI0
aI0
aI0
aI0
aI0
aI0
aI1
aI1
aVvoodoo_attune
p251
aI19
aI2
aI1
aF0.78000000000000003
asI12601
(lp252
I13709
aI3
aNaI4
aI0
aI0
aI0
aI0
aI-5
aI0
aI-65
aI0
aI0
aI0
aI0
aI0
aI0
aI100
aI0
aI4
aI130
aI0
aI0
aI0
aI1
aI0
aI0
aI0
aI0
aI0
aI0
aI0
aI1
aI0
aI0
aI0
aI0
aI-1
aI0
aF0.59999999999999998
aI1
aI0
aI2
aI1
aI0
aI0
aI0
aI0
aI0
aI0
aI0
aI1
aI1
aVvoodoo_poke
p253
aI20
aI2
aF0.5
aF2.0800000000000001
asI12602
(lp254
I13709
aI3
aNaI5
aI0
aI0
aI0
aI0
aI-20
aI0
aI-100
aI0
aI0
aI0
aI0
aI0
aI0
aI100
aI0
aI10
aI130
aI0
aI0
aI0
aI1
aI0
aI0
aI0
aI0
aI0
aI0
aI0
aI1
aI0
aI0
aI0
aI0
aI-1
aI0
aF0.40000000000000002
aI1
aI0
aI2
aI1
aI0
aI0
aI0
aI0
aI0
aI0
aI0
aI1
aI1
aVvoodoo_swarm
p255
aI21
aI2
aI2
aF2.625
asI12603
(lp256
I13709
aI3
aNaI6
aI0
aI0
aI0
aI0
aI-15
aI0
aI120
aI0
aI0
aI0
aI0
aI0
aI0
aI100
aI0
aI10
aI130
aI0
aI0
aI1
aI1
aI0
aI0
aI0
aI0
aI0
aI0
aI0
aI1
aI0
aI0
aI0
aI0
aI-1
aI0
aF0.29999999999999999
aI1
aI0
aI2
aI1
aI0
aI0
aI0
aI0
aI0
aI0
aI0
aI1
aI1
aVvoodoo_heal
p257
aI22
aI2
aI1
aF2.625
asI12604
(lp258
I13709
aI3
aNaI15
aI0
aI0
aI0
aI0
aI-30
aI0
aI0
aI0
aI0
aI0
aI0
aI0
aI0
aI100
aI0
aI30
aI130
aI0
aI0
aI0
aI1
aI0
aI0
aI0
aI0
aI12
aI0
aI0
aI1
aI0
aI1
aI60
aI0
aI-1
aI0
aF0.10000000000000001
aI1
aI0
aI2
aI1
aI0
aI0
aI0
aI0
aI0
aI0
aI0
aI0
aI0
aVvoodoo_curse
p259
aI26
aI2
aI1
aF2.625
asI12605
(lp260
I13709
aI3
aNaF7.5
aI0
aI0
aI0
aI0
aI-35
aI0
aI-25
aI0
aI0
aI0
aI0
aI0
aI0
aI100
aI0
aI25
aI130
aI0
aI0
aI0
aI1
aI0
aI0
aI0
aI0
aI3
aI0
aI0
aI1
aI0
aI1
aI15
aI2
aI-1
aI0
aF0.29999999999999999
aI1
aI0
aI2
aI1
aI0
aI0
aI0
aI0
aI0
aI0
aI0
aI1
aI1
aVvoodoo_burn
p261
aI9
aI2
aI1
aF2.625
asI12606
(lp262
I13709
aI3
aNaI13
aI0
aI0
aI0
aI0
aI-40
aI0
aI240
aI0
aI0
aI0
aI0
aI0
aI0
aI100
aI0
aI30
aI130
aI0
aI0
aI1
aI1
aI0
aI0
aI0
aI0
aI15
aI0
aI0
aI1
aI0
aI0
aI0
aI0
aI-1
aI0
aF0.29999999999999999
aI1
aI0
aI2
aI1
aI0
aI0
aI0
aI0
aI0
aI0
aI0
aI0
aI0
aVvoodoo_cure
p263
aI25
aI2
aI1
aF2.625
asI12607
(lp264
I13709
aI3
aNaI20
aI0
aI0
aI0
aI0
aI-50
aI0
aI0
aI0
aI0
aI0
aI0
aI0
aI0
aI100
aI0
aI60
aI130
aI0
aI0
aI0
aI1
aI0
aI0
aI0
aI0
aI8
aI0
aI0
aI1
aI0
aI1
aI5
aI0
aI-1
aI0
aF0.10000000000000001
aI1
aI0
aI2
aI1
aI0
aI0
aI0
aI0
aI0
aI0
aI0
aI0
aI0
aVvoodoo_shackle
p265
aI24
aI2
aI1
aF2.625
asI12608
(lp266
I13709
aI3
aNaI20
aI0
aI0
aI0
aI0
aI-100
aI0
aI-200
aI0
aI0
aI0
aI0
aI0
aI0
aI100
aI0
aI30
aI130
aI0
aI0
aI0
aI1
aI0
aI0
aI0
aI0
aI23
aI0
aI0
aI1
aI0
aI0
aI0
aI0
aI-1
aI0
aF0.10000000000000001
aI1
aI0
aI2
aI1
aI0
aI0
aI0
aI0
aI0
aI0
aI0
aI0
aI0
aVvoodoo_life_drain
p267
aI27
aI2
aI2
aF2.625
asI12609
(lp268
I13709
aI0
aNaI0
aI0
aI0
aI0
aI0
aI8
aI0
aI0
aI0
aI0
aI0
aI0
aI0
aI0
aI0
aI0
aI0
aI0
aI0
aI0
aI0
aI1
aI0
aI0
aI0
aI0
aI0
aI0
aI0
aI0
aI0
aI0
aI0
aI0
aI-1
aI0
aF0.10000000000000001
aI0
aI0
aI3
aI0
aI0
aI0
aI0
aI0
aI0
aI0
aI0
aI0
aI0
aVstaff_focus
p269
aI0
aI0
aI1
aI0
asI12610
(lp270
I13709
aI0
aNaI0
aI0
aI0
aI0
aI0
aI0
aI0
aI0
aI0
aI0
aI0
aI0
aI0
aI0
aI0
aI2
aI0
aI0
aI0
aI0
aI0
aI0
aI0
aI0
aI0
aI0
aI0
aI0
aI0
aI0
aI0
aI0
aI0
aI0
aI-1
aI0
aI0
aI0
aI0
aI3
aI0
aI0
aI0
aI0
aI0
aI0
aI0
aI0
aI0
aI0
aVvoodoo_will_power
p271
aI0
aI0
aI1
aI0
asI12100
(lp272
I13703
aI1
aNaI1
aI0
aI0
aI0
aI0
aI0
aI0
aI-12
aI0
aI0
aI0
aI0
aI0
aI0
aI100
aI0
aF0.5
aI6
aI0
aI0
aI0
aI1
aI0
aI0
aI0
aI0
aI26
aI0
aI0
aI1
aI0
aI1
aI3
aI0
aI-1
aI0
aF0.22
aI1
aI1
aI1
aI1
aI0
aI0
aI0
aI0
aI0
aI0
aI0
aI1
aI1
aVcutlass_hack
p273
aI1
aI1
aF0.75
aF0.625
asI12101
(lp274
I13703
aI1
aNaI2
aI0
aI0
aI0
aI0
aI0
aI0
aI-33
aI0
aI0
aI0
aI0
aI0
aI0
aI100
aI0
aF0.5
aI6
aI0
aI0
aI0
aI1
aI0
aI0
aI0
aI0
aI26
aI0
aI0
aI1
aI0
aI1
aI3
aI0
aI-1
aI0
aF0.46000000000000002
aI1
aI1
aI1
aI1
aI0
aI0
aI0
aI0
aI0
aI0
aI0
aI1
aI1
aVcutlass_slash
p275
aI2
aI1
aI1
aF0.75
asI12102
(lp276
I13703
aI1
aNaI2
aI0
aI0
aI0
aI0
aI0
aI0
aI-45
aI0
aI0
aI0
aI0
aI0
aI0
aI100
aI0
aF0.5
aI6
aI0
aI0
aI0
aI1
aI0
aI0
aI0
aI0
aI26
aI0
aI0
aI1
aI0
aI1
aI3
aI0
aI-1
aI0
aF0.69999999999999996
aI1
aI2
aI1
aI1
aI0
aI0
aI0
aI0
aI0
aI0
aI0
aI1
aI1
aVcutlass_cleave
p277
aI5
aI1
aF1.25
aF1.125
asI12103
(lp278
I13703
aI1
aNaI4
aI0
aI0
aI0
aI0
aI0
aI0
aI-80
aI0
aI0
aI0
aI0
aI0
aI0
aI100
aI0
aF0.5
aI6
aI0
aI0
aI0
aI1
aI0
aI0
aI0
aI0
aI26
aI0
aI0
aI1
aI0
aI1
aI3
aI0
aI-1
aI0
aF0.59999999999999998
aI3
aI2
aI1
aI1
aI0
aI0
aI0
aI0
aI0
aI0
aI0
aI0
aI0
aVcutlass_flourish
p279
aI4
aI1
aF1.5
aF1.5800000000000001
asI12104
(lp280
I13703
aI1
aNaI6
aI0
aI0
aI0
aI0
aI0
aI0
aI-110
aI0
aI0
aI0
aI0
aI0
aI0
aI100
aI0
aF0.5
aI6
aI0
aI0
aI0
aI1
aI0
aI0
aI0
aI0
aI26
aI0
aI0
aI1
aI0
aI1
aI3
aI0
aI-1
aI0
aI1
aI1
aI3
aI1
aI1
aI0
aI0
aI0
aI0
aI0
aI0
aI0
aI0
aI0
aVcutlass_stab
p281
aI3
aI1
aF1.75
aF1.3
asI12105
(lp282
I13703
aI0
aNaI0
aI0
aI0
aI0
aI0
aI0
aI0
aI0
aI0
aI0
aI0
aI0
aI0
aI0
aI0
aI2
aI0
aI0
aI0
aI0
aI0
aI0
aI0
aI0
aI0
aI0
aI0
aI0
aI0
aI0
aI0
aI0
aI0
aI0
aI-1
aI0
aI0
aI0
aI0
aI3
aI0
aI0
aI0
aI0
aI0
aI0
aI0
aI0
aI1
aI1
aVcutlass_parry
p283
aI0
aI0
aI1
aI0
asI12106
(lp284
I13703
aI0
aNaI0
aI0
aI25
aI0
aI0
aI0
aI0
aI0
aI0
aI0
aI0
aI0
aI0
aI0
aI0
aI0
aI0
aI0
aI0
aI0
aI0
aI0
aI0
aI0
aI0
aI0
aI0
aI0
aI0
aI0
aI0
aI0
aI0
aI0
aI-1
aI0
aI0
aI0
aI0
aI3
aI0
aI0
aI0
aI0
aI0
aI0
aI0
aI0
aI0
aI0
aVgrenade_toughness
p285
aI0
aI0
aI1
aI0
asI12107
(lp286
I13703
aI1
aNaI2
aI0
aI0
aI0
aI0
aI0
aI0
aI-60
aI0
aI0
aI0
aI0
aI0
aI0
aI100
aI0
aI15
aI6
aI15
aI0
aI0
aI1
aI0
aI1
aI0
aI0
aI0
aI0
aI0
aI1
aI0
aI0
aI0
aI0
aI-1
aI0
aF0.59999999999999998
aI1
aI3
aI2
aI0
aI0
aI0
aI0
aI0
aI0
aI0
aI0
aI1
aI1
aVcutlass_sweep
p287
aI29
aI1
aF1.25
aF1.4199999999999999
asI12108
(lp288
I13703
aI1
aNaI5
aI0
aI0
aI0
aI0
aI0
aI0
aI-25
aI0
aI0
aI0
aI0
aI0
aI0
aI100
aI0
aI60
aI6
aI0
aI0
aI0
aI1
aI0
aI0
aI0
aI0
aI6
aI0
aI0
aI1
aI0
aI1
aF2.5
aI0
aI-1
aI0
aF0.5
aI1
aI2
aI2
aI0
aI0
aI0
aI0
aI0
aI0
aI0
aI0
aI0
aI0
aVcutlass_brawl
p289
aI6
aI1
aF0.75
aF1.4099999999999999
asI12109
(lp290
I13703
aI1
aNaI8
aI0
aI0
aI0
aI0
aI0
aI0
aI0
aI0
aI0
aI0
aI0
aI0
aI0
aI100
aI0
aI30
aI12
aI0
aI0
aI0
aI1
aI0
aI0
aI0
aI0
aI10
aI0
aI0
aI1
aI0
aI1
aI30
aI0
aI-1
aI0
aF0.5
aI1
aI1
aI2
aI0
aI0
aI0
aI0
aI0
aI0
aI0
aI0
aI0
aI0
aVcutlass_taunt
p291
aI15
aI1
aI1
aF1.625
asI12110
(lp292
I13703
aI1
aNaI10
aI0
aI0
aI0
aI0
aI0
aI0
aI-200
aI0
aI0
aI0
aI0
aI0
aI0
aI100
aI0
aI30
aI6
aI0
aI0
aI0
aI1
aI0
aI0
aI0
aI0
aI0
aI0
aI0
aI1
aI0
aI0
aI0
aI0
aI-1
aI0
aF0.10000000000000001
aI5
aI2
aI2
aI0
aI0
aI0
aI0
aI0
aI0
aI0
aI0
aI0
aI0
aVcutlass_bladestorm
p293
aI7
aI1
aI5
aF4.1600000000000001
asI12650
(lp294
I13712
aI0
aNaI0
aI0
aI0
aI0
aI0
aI0
aI0
aF0.050000000000000003
aI0
aI0
aI0
aI0
aI0
aI0
aI100
aI0
aI15
aI-1
aI0
aI0
aI0
aI0
aI0
aI0
aI0
aI0
aI0
aI0
aI0
aI0
aI0
aI0
aI0
aI0
aI-1
aI0
aI0
aI1
aI0
aI2
aI1
aI0
aI0
aI0
aI0
aI0
aI0
aI0
aI1
aI1
aVsail_broadside_left
p295
aI0
aI1
aI1
aI0
asI12651
(lp296
I13712
aI0
aNaI0
aI0
aI0
aI0
aI0
aI0
aI0
aF0.050000000000000003
aI0
aI0
aI0
aI0
aI0
aI0
aI100
aI0
aI15
aI-1
aI0
aI0
aI0
aI0
aI0
aI0
aI0
aI0
aI0
aI0
aI0
aI0
aI0
aI0
aI0
aI0
aI-1
aI0
aI0
aI1
aI0
aI2
aI1
aI0
aI0
aI0
aI0
aI0
aI0
aI0
aI1
aI1
aVsail_broadside_right
p297
aI0
aI1
aI1
aI0
asI12652
(lp298
I13712
aI0
aNaI2
aI0
aI0
aI0
aI0
aI0
aI0
aI0
aI0
aI0
aI0
aI0
aI0
aI0
aI100
aI0
aI90
aI-1
aI0
aI0
aI0
aI0
aI0
aI0
aI0
aI0
aI30
aI0
aI0
aI0
aI0
aI0
aI10
aI0
aI-1
aI0
aI0
aI1
aI0
aI2
aI1
aI4
aI4
aI0
aI0
aI0
aI0
aI0
aI1
aI1
aVsail_full_sail
p299
aI0
aI1
aI1
aI0
asI12918
(lp300
I13711
aI5
aI14213
aI1
aI1
aI0
aI0
aI0
aI0
aI0
aI-250
aI0
aI0
aI0
aI0
aI-30
aI-60
aI100
aI0
aI2
aI-1
aI0
aI0
aI0
aI2
aI300
aI0
aI0
aI0
aI0
aI0
aI0
aI0
aI0
aI0
aI0
aI0
aI100
aI0
aI0
aI1
aI0
aI0
aI0
aI0
aI0
aI0
aI0
aI0
aI0
aI0
aI0
aI0
aVbar_shot
p301
aI0
aI1
aI1
aI1
asI12654
(lp302
I13712
aI0
aNaI4
aI0
aI0
aI0
aI0
aI0
aI0
aI0
aI0
aI0
aI0
aI0
aI0
aI0
aI100
aI0
aI60
aI-1
aI150
aI1
aI1
aI0
aI0
aI1
aI0
aI0
aI32
aI0
aI0
aI0
aI0
aI0
aI6
aI0
aI-1
aI0
aI0
aI1
aI0
aI2
aI1
aI0
aI0
aI0
aI0
aI0
aI0
aI1
aI0
aI0
aVsail_openfire2
p303
aI0
aI1
aI1
aI0
asI12655
(lp304
I13712
aI0
aNaI20
aI0
aI0
aI0
aI0
aI0
aI0
aI0
aI0
aI0
aI0
aI0
aI0
aI0
aI100
aI0
aI90
aI-1
aI0
aI0
aI0
aI0
aI0
aI0
aI0
aI0
aI33
aI0
aI0
aI0
aI0
aI0
aI5
aI0
aI-1
aI0
aI0
aI1
aI0
aI2
aI1
aI6
aI6
aI0
aI0
aI0
aI0
aI0
aI0
aI0
aVsail_ramming_speed
p305
aI0
aI1
aI1
aI0
asI12656
(lp306
I13712
aI0
aNaI4
aI0
aI0
aI0
aI0
aI0
aI0
aI0
aI0
aI0
aI0
aI0
aI0
aI0
aI100
aI0
aI60
aI-1
aI150
aI1
aI1
aI0
aI0
aI1
aI0
aI0
aI34
aI0
aI0
aI0
aI0
aI0
aI10
aI0
aI-1
aI0
aI0
aI1
aI0
aI2
aI1
aI0
aI0
aI0
aI0
aI0
aI0
aI1
aI0
aI0
aVsail_take_cover
p307
aI0
aI1
aI1
aI0
asI2280
(lp308
I13706
aI2
aNaI1
aI0
aI0
aI0
aI0
aI0
aI0
aI0
aI0
aI0
aI0
aI0
aI0
aI0
aI80
aI0
aI5
aI100
aI0
aI0
aI0
aI1
aI0
aI0
aI0
aI0
aI26
aI0
aI0
aI1
aI1
aI1
aI3
aI0
aI-1
aI0
aF0.80000000000000004
aI1
aI1
aI2
aI1
aI0
aI0
aI0
aI0
aI0
aI0
aI0
aI0
aI0
aVdagger_throw
p309
aI16
aI0
aI1
aF1.8300000000000001
asI12658
(lp310
I13712
aI0
aNaI0
aI0
aI0
aI0
aI0
aI0
aI0
aI0
aI0
aI0
aI0
aI0
aI0
aI0
aI0
aI0
aI0
aI0
aI0
aI0
aI0
aI0
aI0
aI0
aI0
aI0
aI0
aI0
aI0
aI0
aI0
aI0
aI0
aI0
aI-1
aI0
aI0
aI0
aI0
aI3
aI0
aI0
aI0
aI0
aI0
aF0.029999999999999999
aF0.029999999999999999
aI0
aI0
aI0
aVsail_tacking
p311
aI0
aI1
aI1
aI0
asI12659
(lp312
I13712
aI0
aNaI0
aI0
aI0
aI0
aI0
aI0
aI0
aI0
aI0
aI0
aI0
aI0
aI0
aI0
aI0
aI0
aI0
aI0
aI0
aI0
aI0
aI0
aI0
aI0
aI0
aI0
aI0
aI0
aI0
aI0
aI0
aI0
aI0
aI0
aI-1
aI0
aI0
aI0
aI0
aI3
aI0
aI0
aI0
aI0
aI0
aI0
aI0
aI0
aI0
aI0
aVsail_treasure_sense
p313
aI0
aI1
aI1
aI0
asI12660
(lp314
I13712
aI0
aNaI0
aI0
aI0
aI0
aI0
aI0
aI0
aI0
aI0
aI0
aI0
aI0
aI0
aI0
aI0
aI0
aF0.029999999999999999
aI0
aI0
aI0
aI0
aI0
aI0
aI0
aI0
aI0
aI0
aI0
aI0
aI0
aI0
aI0
aI0
aI0
aI-1
aI0
aI0
aI0
aI0
aI3
aI0
aI0
aI0
aI0
aI0
aI0
aI0
aI0
aI0
aI0
aVsail_task_master
p315
aI0
aI1
aI1
aI0
asI12661
(lp316
I13712
aI0
aNaI4
aI0
aI0
aI0
aI0
aI0
aI0
aI0
aI0
aI0
aI0
aI0
aI0
aI0
aI100
aI0
aI120
aI-1
aI0
aI0
aI0
aI0
aI0
aI0
aI0
aI0
aI35
aI0
aI0
aI0
aI0
aI0
aI10
aI0
aI-1
aI0
aI0
aI1
aI0
aI2
aI1
aI1
aI0
aI0
aI0
aI0
aI0
aI0
aI0
aI0
aVsail_recharge
p317
aI0
aI1
aI1
aI0
asI2281
(lp318
I13706
aI2
aNaI1
aI0
aI0
aI0
aI0
aI0
aI0
aI0
aI0
aI0
aI0
aI0
aI0
aI0
aI80
aI0
aI15
aI100
aI0
aI0
aI0
aI1
aI0
aI0
aI0
aI0
aI5
aI0
aI0
aI1
aI1
aI1
aI10
aI2
aI-1
aI0
aF0.80000000000000004
aI1
aI1
aI2
aI1
aI0
aI0
aI0
aI0
aI0
aI0
aI0
aI0
aI0
aVdagger_adder
p319
aI8
aI0
aF0.75
aF1.8300000000000001
asI12922
(lp320
I13711
aI5
aI14217
aI1
aI1
aI0
aI0
aI0
aI0
aI0
aI-300
aI0
aI0
aI0
aI0
aI-70
aI-60
aI100
aI0
aI2
aI-1
aI0
aI0
aI0
aI2
aI540
aI0
aI0
aI0
aI0
aI0
aI0
aI0
aI0
aI0
aI0
aI0
aI100
aI0
aI0
aI1
aI0
aI0
aI0
aI0
aI0
aI0
aI0
aI0
aI0
aI0
aI0
aI0
aVcomet
p321
aI0
aI1
aI1
aI1
asS'columnHeadings'
p322
(dp323
VSHIP_MAXSPEED_INDEX
p324
I45
sVANIM_TIME_INDEX
p325
I57
sVSHIP_TURNRATE_INDEX
p326
I48
sVNPC_MODIFIER
p327
I56
sVREPUTATION_INDEX
p328
I3
sVSELF_HP_INDEX
p329
I5
sVNEED_SIGHT
p330
I33
sVPVP_INDEX
p331
I52
sVINSTANT_INDEX
p332
I31
sVSKILL_ICON_INDEX
p333
I53
sVTARGET_POWER_INDEX
p334
I11
sVAREA_EFFECT_INDEX
p335
I21
sVACCURACY_INDEX
p336
I17
sVFREE_INDEX
p337
I51
sVSHIP_REVACCEL_INDEX
p338
I46
sVDURATION_INDEX
p339
I35
sVSELF_POWER_INDEX
p340
I6
sVSELF_MOJO_INDEX
p341
I8
sVREPUTATION_CATEGORY_INDEX
p342
I0
sVHIT_VFX
p343
I54
sVSELF_LUCK_INDEX
p344
I7
sVNEED_TARGET_INDEX
p345
I32
sVSHIP_REVMAXSPEED_INDEX
p346
I47
sVSHOUT_INDEX
p347
I50
sVUSABLE_IN_AIR
p348
I43
sVTARGET_SWIFTNESS_INDEX
p349
I14
sVTARGET_MOJO_INDEX
p350
I13
sVREACTION_DELAY_INDEX
p351
I39
sVRANGE_INDEX
p352
I20
sVSAIL_HP_INDEX
p353
I16
sVATTACK_CLASS_INDEX
p354
I1
sVTARGET_LUCK_INDEX
p355
I12
sVRECUR_INDEX
p356
I36
sVUNATTUNE_INDEX
p357
I28
sVSHIP_MAXTURN_INDEX
p358
I49
sVEFFECT_FLAG_INDEX
p359
I29
sVAREA_EFFECT_SELF_DAMAGE_INDEX
p360
I22
sVSKILL_LEVEL_INDEX
p361
I41
sVAMMO_INVENTORY_TYPE
p362
I2
sVIS_PROJECTILE_INDEX
p363
I4
sVHOSTILE_BUFF
p364
I34
sVSELF_SWIFTNESS_INDEX
p365
I9
sVSKILL_TRACK_INDEX
p366
I42
sVTARGET_HP_INDEX
p367
I10
sVSHIP_ACCEL_INDEX
p368
I44
sVCENTER_VFX
p369
I55
sVMAX_QUANTITY_INDEX
p370
I37
sVINTERRUPT_INDEX
p371
I27
sVNUM_HIT_INDEX
p372
I40
sVAREA_SHAPE_INDEX
p373
I26
sVPROJECTILE_POWER_INDEX
p374
I25
sVDELAY_INDEX
p375
I30
sVMAX_CHARGE_INDEX
p376
I38
sVVOLLEY_INDEX
p377
I24
sVFRIENDLY_FIRE_INDEX
p378
I23
sVRECHARGE_INDEX
p379
I19
sVHULL_HP_INDEX
p380
I15
sVDODGE_INDEX
p381
I18
ssI12700
(lp382
I13708
aI3
aNaF0.5
aI0
aI0
aI0
aI0
aI0
aI0
aI-10
aI0
aI0
aI0
aI0
aI0
aI0
aI90
aI0
aF0.80000000000000004
aI70
aI3
aI0
aI0
aI1
aI0
aI1
aI0
aI0
aI0
aI0
aI0
aI1
aI0
aI0
aI0
aI0
aI-1
aI0
aF0.69999999999999996
aI1
aI0
aI1
aI1
aI0
aI0
aI0
aI0
aI0
aI0
aI0
aI1
aI1
aVstaff_blast
p383
aI31
aI0
aI1
aF1.3300000000000001
asI12701
(lp384
I13708
aI3
aNaF2.5
aI0
aI0
aI0
aI0
aI-30
aI0
aI-50
aI0
aI0
aI0
aI0
aI0
aI0
aI100
aI0
aF0.5
aI50
aI0
aI0
aI0
aI1
aI0
aI3
aI0
aI0
aI7
aI0
aI0
aI0
aI0
aI1
aI5
aI0
aI-1
aI1
aF0.10000000000000001
aI1
aI0
aI2
aI0
aI0
aI0
aI0
aI0
aI0
aI0
aI0
aI1
aI1
aVstaff_frostbeam
p385
aI36
aI2
aI1
aF1.3300000000000001
asI12702
(lp386
I13708
aI3
aNaI5
aI0
aI0
aI0
aI0
aI-45
aI0
aI-80
aI0
aI0
aI0
aI0
aI0
aI0
aI100
aI0
aF0.5
aI50
aI0
aI0
aI0
aI1
aI0
aI2
aI0
aI0
aI21
aI0
aI0
aI0
aI0
aI1
aI20
aI2
aI-1
aI3
aF0.10000000000000001
aI1
aI0
aI2
aI0
aI0
aI0
aI0
aI0
aI0
aI0
aI0
aI1
aI1
aVstaff_pestilence
p387
aI33
aI2
aI1
aF1.3300000000000001
asI12703
(lp388
I13708
aI3
aNaI4
aI0
aI0
aI0
aI0
aI-60
aI0
aI-100
aI0
aI0
aI0
aI0
aI0
aI0
aI100
aI0
aF0.5
aI20
aI20
aI0
aI0
aI1
aI0
aI1
aI0
aI0
aI14
aI0
aI0
aI0
aI0
aI1
aI15
aI0
aI-1
aI2
aF0.10000000000000001
aI1
aI0
aI2
aI0
aI0
aI0
aI0
aI0
aI0
aI0
aI0
aI1
aI1
aVstaff_sparks
p389
aI32
aI2
aI1
aF1.3300000000000001
asI12704
(lp390
I13708
aI3
aNaF8.5
aI0
aI0
aI0
aI0
aI-120
aI0
aI-200
aI0
aI0
aI0
aI0
aI0
aI0
aI100
aI0
aF0.5
aI120
aI0
aI0
aI0
aI1
aI0
aI3
aI0
aI0
aI3
aI0
aI0
aI0
aI0
aI1
aI6
aI2
aI-1
aI4
aF0.10000000000000001
aI1
aI0
aI2
aI0
aI0
aI0
aI0
aI0
aI0
aI0
aI0
aI0
aI0
aVstaff_fire
p391
aI37
aI2
aI1
aF1.3300000000000001
asI12705
(lp392
I13708
aI3
aNaI18
aI0
aI0
aI0
aI0
aI-210
aI0
aI-300
aI0
aI0
aI0
aI0
aI0
aI0
aI100
aI0
aF0.5
aI50
aI0
aI0
aI0
aI1
aI0
aI0
aI0
aI0
aI16
aI0
aI0
aI1
aI1
aI1
aI0
aI0
aI-1
aI8
aF0.10000000000000001
aI1
aI0
aI2
aI0
aI0
aI0
aI0
aI0
aI0
aI0
aI0
aI0
aI0
aVstaff_deluge
p393
aI34
aI2
aI1
aF1.3300000000000001
asI12706
(lp394
I13708
aI3
aNaI15
aI0
aI0
aI0
aI0
aI-300
aI0
aI-350
aI0
aI0
aI0
aI0
aI0
aI0
aI100
aI0
aF0.5
aI20
aI40
aI0
aI0
aI1
aI0
aI1
aI0
aI0
aI22
aI0
aI0
aI0
aI0
aI1
aI0
aI0
aI-1
aI12
aF0.10000000000000001
aI1
aI0
aI2
aI0
aI0
aI0
aI0
aI0
aI0
aI0
aI0
aI0
aI0
aVstaff_shockwave
p395
aI35
aI2
aI1
aF1.3300000000000001
asI12707
(lp396
I13708
aI0
aNaI0
aI0
aI0
aI0
aI0
aI10
aI0
aI0
aI0
aI0
aI0
aI0
aI0
aI0
aI0
aI0
aI0
aI0
aI0
aI0
aI0
aI0
aI0
aI0
aI0
aI0
aI0
aI0
aI0
aI0
aI0
aI0
aI0
aI0
aI-1
aI0
aI0
aI0
aI0
aI3
aI0
aI0
aI0
aI0
aI0
aI0
aI0
aI0
aI1
aI1
aVstaff_concentration
p397
aI0
aI0
aI1
aI0
asI12708
(lp398
I13708
aI0
aNaI0
aI0
aI0
aI0
aI0
aI0
aI0
aI0
aI0
aI0
aI0
aI0
aI0
aI0
aI0
aI0
aI0
aI0
aI0
aI0
aI0
aI0
aI0
aI0
aI0
aI0
aI0
aI0
aI0
aI0
aI0
aI0
aI0
aI0
aI-1
aF0.040000000000000001
aI0
aI0
aI0
aI3
aI0
aI0
aI0
aI0
aI0
aI0
aI0
aI0
aI0
aI0
aVstaff_spirit_lore
p399
aI0
aI0
aI1
aI0
asI12709
(lp400
I13708
aI0
aNaI0
aI0
aI0
aI0
aI0
aF0.040000000000000001
aI0
aI0
aI0
aI0
aI0
aI0
aI0
aI0
aI0
aI0
aI0
aI0
aI0
aI0
aI0
aI0
aI0
aI0
aI0
aI0
aI0
aI0
aI0
aI0
aI0
aI0
aI0
aI0
aI-1
aI0
aI0
aI0
aI0
aI3
aI0
aI0
aI0
aI0
aI0
aI0
aI0
aI0
aI0
aI0
aVstaff_conservation
p401
aI0
aI0
aI1
aI0
asI12710
(lp402
I13708
aI0
aNaI0
aI0
aI0
aI0
aI0
aI0
aI0
aF0.050000000000000003
aI0
aI0
aI0
aI0
aI0
aI0
aI0
aI0
aI0
aI0
aI0
aI0
aI0
aI0
aI0
aI0
aI0
aI0
aI0
aI0
aI0
aI0
aI0
aI0
aI0
aI0
aI-1
aI0
aI0
aI0
aI0
aI3
aI0
aI0
aI0
aI0
aI0
aI0
aI0
aI0
aI0
aI0
aVstaff_harmony
p403
aI0
aI0
aI1
aI0
asI12200
(lp404
I13704
aI2
aNaI2
aI0
aI0
aI0
aI0
aI0
aI0
aI-15
aI0
aI0
aI0
aI0
aI0
aI0
aI80
aI0
aF0.5
aI70
aI0
aI0
aI0
aI1
aI0
aI0
aI0
aI0
aI0
aI0
aI0
aI1
aI1
aI0
aI0
aI0
aI-1
aI0
aF0.10000000000000001
aI1
aI1
aI1
aI1
aI0
aI0
aI0
aI0
aI0
aI0
aI0
aI1
aI1
aVpistol_shoot
p405
aI0
aI0
aI1
aF0.55000000000000004
asI12201
(lp406
I13704
aI2
aNaI1
aI0
aI0
aI0
aI0
aI0
aI0
aI-20
aI0
aI0
aI0
aI0
aI0
aI0
aI80
aI0
aI0
aI0
aI0
aI0
aI0
aI1
aI0
aI0
aI0
aI0
aI0
aI0
aI0
aI1
aI1
aI0
aI0
aI0
aI-1
aI0
aI0
aI1
aI0
aI2
aI1
aI0
aI0
aI0
aI0
aI0
aI0
aI0
aI1
aI1
aVlead
p407
aI0
aI0
aI1
aI0
asI12202
(lp408
I13704
aI2
aI13901
aI2
aI0
aI0
aI0
aI0
aI0
aI0
aI-25
aI0
aI0
aI0
aI0
aI0
aI0
aI80
aI0
aI0
aI0
aI0
aI0
aI0
aI1
aI0
aI0
aI0
aI0
aI5
aI0
aI0
aI1
aI1
aI1
aI10
aI2
aI50
aI0
aI0
aI1
aI0
aI2
aI1
aI0
aI0
aI0
aI0
aI0
aI0
aI0
aI1
aI1
aVvenom
p409
aI8
aI0
aI1
aI0
asI12203
(lp410
I13704
aI2
aI13902
aI2
aI0
aI0
aI0
aI0
aI0
aI0
aI-35
aI0
aI0
aI0
aI0
aI0
aI0
aI80
aI0
aI0
aI0
aI0
aI0
aI0
aI1
aI0
aI0
aI0
aI0
aI14
aI0
aI0
aI1
aI1
aI1
aI4
aI0
aI50
aI0
aI0
aI1
aI0
aI2
aI1
aI0
aI0
aI0
aI0
aI0
aI0
aI0
aI1
aI1
aVsteel
p411
aI0
aI0
aI1
aI0
asI12204
(lp412
I13704
aI2
aI13903
aI2
aI0
aI0
aI0
aI0
aI0
aI0
aI-20
aI0
aI0
aI-35
aI0
aI0
aI0
aI80
aI0
aI0
aI0
aI0
aI0
aI0
aI1
aI0
aI0
aI0
aI0
aI15
aI0
aI0
aI1
aI1
aI0
aI0
aI0
aI50
aI0
aI0
aI1
aI0
aI2
aI1
aI0
aI0
aI0
aI0
aI0
aI0
aI0
aI0
aI0
aVgold
p413
aI0
aI0
aI1
aI0
asI12205
(lp414
I13704
aI2
aI13904
aI3
aI0
aI0
aI0
aI0
aI0
aI0
aI-50
aI0
aI0
aI0
aI0
aI0
aI0
aI80
aI0
aI0
aI0
aI0
aI0
aI0
aI1
aI0
aI0
aI0
aI0
aI16
aI0
aI0
aI1
aI1
aI0
aI0
aI0
aI50
aI0
aI0
aI1
aI0
aI2
aI1
aI0
aI0
aI0
aI0
aI0
aI0
aI0
aI0
aI0
aVsilver
p415
aI0
aI0
aI1
aI0
asI12206
(lp416
I13704
aI2
aI13905
aI3
aI0
aI0
aI0
aI0
aI0
aI0
aI-55
aI0
aI0
aI0
aI0
aI0
aI0
aI80
aI0
aI0
aI0
aI0
aI0
aI0
aI1
aI0
aI0
aI0
aI0
aI17
aI0
aI0
aI1
aI1
aI0
aI0
aI0
aI50
aI0
aI0
aI1
aI0
aI2
aI1
aI0
aI0
aI0
aI0
aI0
aI0
aI0
aI0
aI0
aViron
p417
aI0
aI0
aI1
aI0
asI12207
(lp418
I13704
aI0
aNaI0
aI0
aI0
aI0
aI0
aI0
aI0
aI0
aI0
aI0
aI0
aI0
aI0
aI0
aI5
aI0
aI0
aI0
aI0
aI0
aI0
aI0
aI0
aI0
aI0
aI0
aI0
aI0
aI0
aI0
aI0
aI0
aI0
aI0
aI-1
aI0
aI0
aI0
aI0
aI3
aI0
aI0
aI0
aI0
aI0
aI0
aI0
aI0
aI0
aI0
aVpistol_sharp_shooter
p419
aI0
aI0
aI1
aI0
asI12208
(lp420
I13704
aI0
aNaI0
aI0
aI0
aI0
aI0
aI0
aI0
aI0
aI0
aI0
aI0
aI0
aI0
aI0
aI0
aI2
aI0
aI0
aI0
aI0
aI0
aI0
aI0
aI0
aI0
aI0
aI0
aI0
aI0
aI0
aI0
aI0
aI0
aI0
aI-1
aI0
aI0
aI0
aI0
aI3
aI0
aI0
aI0
aI0
aI0
aI0
aI0
aI0
aI0
aI0
aVdagger_dodge
p421
aI0
aI0
aI1
aI0
asI12209
(lp422
I13704
aI0
aNaI0
aI0
aI0
aI0
aI0
aI0
aI0
aI0
aI0
aI0
aI0
aI0
aI0
aI0
aI0
aI0
aI0
aI4
aI0
aI0
aI0
aI0
aI0
aI0
aI0
aI0
aI0
aI0
aI0
aI0
aI0
aI0
aI0
aI0
aI-1
aI0
aI0
aI0
aI0
aI3
aI0
aI0
aI0
aI0
aI0
aI0
aI0
aI0
aI0
aI0
aVpistol_eagle_eye
p423
aI0
aI0
aI1
aI0
asI12210
(lp424
I13704
aI2
aNaI5
aI0
aI0
aI0
aI0
aI0
aI0
aI-15
aI0
aI0
aI0
aI0
aI0
aI0
aI110
aI0
aI1
aI100
aI0
aI0
aI0
aI1
aI0
aI0
aI0
aI0
aI7
aI0
aI0
aI1
aI1
aI1
aI3
aI0
aI-1
aI2
aF0.10000000000000001
aI1
aI1
aI1
aI1
aI0
aI0
aI0
aI0
aI0
aI0
aI0
aI1
aI1
aVpistol_take_aim
p425
aI0
aI0
aI1
aF0.55000000000000004
asI2121
(lp426
I0
aI0
aNaI0
aI0
aI0
aI0
aI0
aI0
aI0
aI0
aI0
aI0
aI0
aI0
aI0
aI0
aI100
aI0
aI0
aI0
aI0
aI0
aI0
aI1
aI0
aI0
aI0
aI0
aI0
aI0
aI0
aI0
aI0
aI0
aI0
aI0
aI-1
aI0
aF0.10000000000000001
aI1
aI1
aI1
aI1
aI0
aI0
aI0
aI0
aI0
aI0
aI0
aI1
aI1
aVgrenade_strength
p427
aI0
aI2
aI1
aI0
asI2293
(lp428
I13703
aI1
aNaI1
aI0
aI0
aI0
aI0
aI0
aI0
aI0
aI0
aI0
aI0
aI0
aI0
aI0
aI90
aI0
aI2
aI6
aI0
aI0
aI0
aI1
aI0
aI0
aI0
aI0
aI4
aI0
aI0
aI0
aI0
aI1
aI10
aI2
aI-1
aI0
aF0.5
aI2
aI1
aI1
aI1
aI0
aI0
aI0
aI0
aI0
aI0
aI0
aI0
aI0
aVsword
p429
aI1
aI1
aI1
aI1
asI11200
(lp430
I0
aI0
aI11200
aI0
aI0
aI200
aI0
aI0
aI50
aI0
aI0
aI0
aI0
aI0
aI0
aI0
aI0
aI100
aI0
aI0
aI-1
aI0
aI0
aI0
aI1
aI0
aI0
aI0
aI0
aI0
aI0
aI1
aI0
aI0
aI0
aI0
aI0
aI3
aI0
aI0
aI1
aI0
aI4
aI1
aI0
aI0
aI0
aI0
aI0
aI0
aI0
aI1
aI0
aVicon_potion_tonic
p431
aI38
aI1
aI1
aI0
asI11201
(lp432
I0
aI0
aI11201
aI0
aI0
aI350
aI0
aI0
aI100
aI0
aI0
aI0
aI0
aI0
aI0
aI0
aI0
aI100
aI0
aI0
aI-1
aI0
aI0
aI0
aI1
aI0
aI0
aI0
aI0
aI0
aI0
aI1
aI0
aI0
aI0
aI0
aI0
aI3
aI0
aI0
aI1
aI0
aI4
aI1
aI0
aI0
aI0
aI0
aI0
aI0
aI0
aI1
aI0
aVicon_potion_tonic
p433
aI38
aI1
aI1
aI0
asI11202
(lp434
I0
aI0
aI11202
aI0
aI0
aI650
aI0
aI0
aI250
aI0
aI0
aI0
aI0
aI0
aI0
aI0
aI0
aI100
aI0
aI0
aI-1
aI0
aI0
aI0
aI1
aI0
aI0
aI0
aI0
aI0
aI0
aI1
aI0
aI0
aI0
aI0
aI0
aI3
aI0
aI0
aI1
aI0
aI4
aI1
aI0
aI0
aI0
aI0
aI0
aI0
aI0
aI1
aI0
aVicon_potion_holy_water
p435
aI38
aI1
aI1
aI0
asI11203
(lp436
I0
aI0
aI11203
aI0
aI0
aI1000
aI0
aI0
aI375
aI0
aI0
aI0
aI0
aI0
aI0
aI0
aI0
aI100
aI0
aI0
aI-1
aI0
aI0
aI0
aI1
aI0
aI0
aI0
aI0
aI0
aI0
aI1
aI0
aI0
aI0
aI0
aI0
aI3
aI0
aI0
aI1
aI0
aI4
aI1
aI0
aI0
aI0
aI0
aI0
aI0
aI0
aI1
aI0
aVicon_potion_elixer
p437
aI38
aI1
aI1
aI0
asI11204
(lp438
I0
aI0
aI11204
aI0
aI0
aI1500
aI0
aI0
aI500
aI0
aI0
aI0
aI0
aI0
aI0
aI0
aI0
aI100
aI0
aI0
aI-1
aI0
aI0
aI0
aI1
aI0
aI0
aI0
aI0
aI0
aI0
aI1
aI0
aI0
aI0
aI0
aI0
aI3
aI0
aI0
aI1
aI0
aI4
aI1
aI0
aI0
aI0
aI0
aI0
aI0
aI0
aI1
aI0
aVicon_potion_miracle_water
p439
aI38
aI1
aI1
aI0
asI11205
(lp440
I0
aI0
aI11205
aI0
aI0
aI0
aI0
aI0
aI0
aI0
aI0
aI0
aI0
aI0
aI0
aI5000
aI2000
aI100
aI0
aI0
aI-1
aI0
aI0
aI1
aI1
aI0
aI0
aI0
aI0
aI28
aI0
aI1
aI1
aI0
aI0
aI0
aI0
aI2
aI0
aI0
aI1
aI0
aI4
aI1
aI0
aI0
aI0
aI0
aI0
aI0
aI0
aI1
aI1
aVsail_come_about
p441
aI0
aI1
aI1
aI0
asI12921
(lp442
I13711
aI5
aI14216
aI1
aI1
aI0
aI0
aI0
aI0
aI0
aI-80
aI0
aI0
aI0
aI0
aI-40
aI-100
aI100
aI0
aI2
aI-1
aI0
aI0
aI0
aI4
aI350
aI0
aI0
aI0
aI0
aI0
aI0
aI0
aI0
aI0
aI0
aI0
aI100
aI0
aI0
aI1
aI0
aI0
aI0
aI0
aI0
aI0
aI0
aI0
aI0
aI0
aI0
aI0
aVbarnacles
p443
aI0
aI1
aI1
aI1
asI2000
(lp444
I13713
aI1
aNaI1
aI0
aI0
aI0
aI0
aI0
aI0
aI0
aI0
aI0
aI0
aI0
aI0
aI0
aI90
aI0
aI2
aI6
aI0
aI0
aI0
aI1
aI0
aI0
aI0
aI0
aI26
aI0
aI0
aI1
aI1
aI1
aI3
aI0
aI-1
aI0
aF0.10000000000000001
aI1
aI1
aI1
aI1
aI0
aI0
aI0
aI0
aI0
aI0
aI0
aI0
aI0
aVcutlass_stab
p445
aI0
aI1
aI1
aI0
asI2001
(lp446
I13713
aI1
aNaI1
aI0
aI0
aI0
aI0
aI0
aI0
aI0
aI0
aI0
aI0
aI0
aI0
aI0
aI90
aI0
aI2
aI6
aI0
aI0
aI0
aI1
aI0
aI0
aI0
aI0
aI26
aI0
aI0
aI1
aI1
aI1
aI3
aI0
aI-1
aI0
aF0.10000000000000001
aI1
aI1
aI1
aI1
aI0
aI0
aI0
aI0
aI0
aI0
aI0
aI0
aI0
aVcutlass_stab
p447
aI0
aI1
aI1
aI0
asI2002
(lp448
I13713
aI1
aNaI1
aI0
aI0
aI0
aI0
aI0
aI0
aI0
aI0
aI0
aI0
aI0
aI0
aI0
aI90
aI0
aI2
aI6
aI0
aI0
aI0
aI1
aI0
aI0
aI0
aI0
aI26
aI0
aI0
aI1
aI1
aI1
aI3
aI0
aI-1
aI0
aF0.10000000000000001
aI2
aI1
aI1
aI1
aI0
aI0
aI0
aI0
aI0
aI0
aI0
aI0
aI0
aVcutlass_stab
p449
aI2
aI1
aI2
aI0
asI2020
(lp450
I13713
aI3
aNaI1
aI0
aI0
aI0
aI0
aI0
aI0
aI0
aI0
aI0
aI0
aI0
aI0
aI0
aI70
aI0
aI5
aI150
aI0
aI0
aI0
aI1
aI0
aI0
aI0
aI0
aI21
aI0
aI0
aI1
aI0
aI1
aI20
aI2
aI-1
aI0
aF0.10000000000000001
aI1
aI1
aI1
aI1
aI0
aI0
aI0
aI0
aI0
aI0
aI0
aI0
aI0
aVcutlass_stab
p451
aI8
aI1
aI1
aI0
asI2021
(lp452
I13713
aI1
aNaI1
aI0
aI0
aI0
aI0
aI0
aI0
aI0
aI0
aI0
aI0
aI0
aI0
aI0
aI70
aI0
aI8
aI115
aI0
aI0
aI0
aI1
aI0
aI0
aI0
aI0
aI26
aI0
aI0
aI1
aI0
aI1
aI4
aI0
aI-1
aI0
aF1.1000000000000001
aI1
aI1
aI1
aI1
aI0
aI0
aI0
aI0
aI0
aI0
aI0
aI0
aI0
aVcutlass_stab
p453
aI0
aI1
aI1
aI0
asI2022
(lp454
I13713
aI1
aNaI1
aI0
aI0
aI0
aI0
aI0
aI0
aI0
aI0
aI0
aI0
aI0
aI0
aI0
aI100
aI0
aI20
aI110
aI0
aI0
aI0
aI1
aI0
aI0
aI0
aI0
aI26
aI0
aI0
aI1
aI0
aI1
aI4
aI0
aI-1
aI0
aI2
aI1
aI1
aI1
aI1
aI0
aI0
aI0
aI0
aI0
aI0
aI0
aI0
aI0
aVcutlass_stab
p455
aI0
aI1
aF0.25
aI0
asI2023
(lp456
I13713
aI1
aNaI1
aI0
aI0
aI0
aI0
aI0
aI0
aI0
aI0
aI0
aI0
aI0
aI0
aI0
aI100
aI0
aI8
aI110
aI0
aI0
aI0
aI1
aI0
aI0
aI0
aI0
aI26
aI0
aI0
aI1
aI0
aI1
aI4
aI0
aI-1
aI0
aF0.40000000000000002
aI1
aI1
aI1
aI1
aI0
aI0
aI0
aI0
aI0
aI0
aI0
aI0
aI0
aVcutlass_stab
p457
aI0
aI1
aF0.5
aI0
asI2024
(lp458
I13713
aI1
aNaI1
aI0
aI0
aI0
aI0
aI0
aI0
aI0
aI0
aI0
aI0
aI0
aI0
aI0
aI100
aI0
aI5
aI110
aI0
aI0
aI0
aI1
aI0
aI0
aI0
aI0
aI26
aI0
aI0
aI1
aI0
aI1
aI4
aI0
aI-1
aI0
aF3.2000000000000002
aI1
aI1
aI1
aI1
aI0
aI0
aI0
aI0
aI0
aI0
aI0
aI0
aI0
aVcutlass_stab
p459
aI0
aI1
aI3
aI0
asI2025
(lp460
I13713
aI1
aNaI1
aI0
aI0
aI0
aI0
aI0
aI0
aI0
aI0
aI0
aI0
aI0
aI0
aI0
aI80
aI0
aI5
aI115
aI0
aI0
aI0
aI1
aI0
aI0
aI0
aI0
aI26
aI0
aI0
aI1
aI0
aI1
aI4
aI0
aI-1
aI0
aF1.1000000000000001
aI1
aI1
aI1
aI1
aI0
aI0
aI0
aI0
aI0
aI0
aI0
aI0
aI0
aVcutlass_stab
p461
aI0
aI1
aF1.5
aI0
asI2026
(lp462
I13713
aI1
aNaI1
aI0
aI0
aI0
aI0
aI0
aI0
aI0
aI0
aI0
aI0
aI0
aI0
aI0
aI90
aI0
aI10
aI6
aI10
aI0
aI0
aI1
aI0
aI1
aI0
aI0
aI26
aI0
aI0
aI1
aI0
aI1
aI4
aI0
aI-1
aI0
aF0.29999999999999999
aI1
aI1
aI1
aI1
aI0
aI0
aI0
aI0
aI0
aI0
aI0
aI0
aI0
aVcutlass_stab
p463
aI0
aI1
aF0.75
aI0
asI2257
(lp464
I13703
aI1
aNaI1
aI0
aI0
aI0
aI0
aI0
aI0
aI0
aI0
aI0
aI0
aI0
aI0
aI0
aI100
aI0
aI12
aI7
aI0
aI0
aI0
aI1
aI0
aI0
aI0
aI0
aI0
aI0
aI0
aI0
aI0
aI0
aI0
aI0
aI-1
aI0
aF0.22
aI4
aI1
aI1
aI1
aI0
aI0
aI0
aI0
aI0
aI0
aI0
aI0
aI0
aVsword
p465
aI1
aI1
aI2
aI1
asI2040
(lp466
I13713
aI1
aNaI1
aI0
aI0
aI0
aI0
aI0
aI0
aI0
aI0
aI0
aI0
aI0
aI0
aI0
aI80
aI0
aI30
aI15
aI0
aI0
aI0
aI1
aI0
aI3
aI0
aI0
aI7
aI0
aI0
aI1
aI0
aI1
aI5
aI0
aI-1
aI0
aF0.10000000000000001
aI1
aI1
aI1
aI1
aI0
aI0
aI0
aI0
aI0
aI0
aI0
aI0
aI0
aVcutlass_stab
p467
aI0
aI1
aI1
aI0
asI2041
(lp468
I13713
aI1
aNaI1
aI0
aI0
aI0
aI0
aI0
aI0
aI0
aI0
aI0
aI0
aI0
aI0
aI0
aI80
aI0
aI30
aI15
aI0
aI0
aI0
aI1
aI0
aI3
aI0
aI0
aI7
aI0
aI0
aI1
aI0
aI1
aI5
aI0
aI-1
aI0
aF0.10000000000000001
aI1
aI1
aI1
aI1
aI0
aI0
aI0
aI0
aI0
aI0
aI0
aI0
aI0
aVcutlass_stab
p469
aI0
aI1
aI1
aI0
asI2042
(lp470
I13713
aI1
aNaI1
aI0
aI0
aI0
aI0
aI0
aI0
aI0
aI0
aI0
aI0
aI0
aI0
aI0
aI80
aI0
aI2
aI10
aI0
aI0
aI0
aI1
aI0
aI0
aI0
aI0
aI26
aI0
aI0
aI1
aI0
aI1
aI3
aI0
aI-1
aI0
aF0.10000000000000001
aI1
aI1
aI1
aI1
aI0
aI0
aI0
aI0
aI0
aI0
aI0
aI0
aI0
aVcutlass_stab
p471
aI0
aI1
aF0.75
aI0
asI2043
(lp472
I13713
aI1
aNaI1
aI0
aI0
aI0
aI0
aI0
aI0
aI0
aI0
aI0
aI0
aI0
aI0
aI0
aI80
aI0
aI2
aI10
aI0
aI0
aI0
aI1
aI0
aI0
aI0
aI0
aI26
aI0
aI0
aI1
aI0
aI1
aI3
aI0
aI-1
aI0
aF0.10000000000000001
aI1
aI1
aI1
aI1
aI0
aI0
aI0
aI0
aI0
aI0
aI0
aI0
aI0
aVcutlass_stab
p473
aI0
aI1
aF0.75
aI0
asI2044
(lp474
I13713
aI1
aNaI1
aI0
aI0
aI0
aI0
aI0
aI0
aI0
aI0
aI0
aI0
aI0
aI0
aI0
aI80
aI0
aI5
aI12
aI0
aI0
aI0
aI1
aI0
aI2
aI0
aI0
aI7
aI0
aI0
aI1
aI0
aI1
aI10
aI0
aI-1
aI0
aF0.10000000000000001
aI1
aI1
aI1
aI1
aI0
aI0
aI0
aI0
aI0
aI0
aI0
aI0
aI0
aVcutlass_stab
p475
aI0
aI1
aF1.25
aI0
asI2045
(lp476
I13713
aI1
aNaI1
aI0
aI0
aI0
aI0
aI0
aI0
aI0
aI0
aI0
aI0
aI0
aI0
aI0
aI80
aI0
aI5
aI12
aI0
aI0
aI0
aI1
aI0
aI2
aI0
aI0
aI7
aI0
aI0
aI1
aI0
aI1
aI10
aI0
aI-1
aI0
aF0.10000000000000001
aI1
aI1
aI1
aI1
aI0
aI0
aI0
aI0
aI0
aI0
aI0
aI0
aI0
aVcutlass_stab
p477
aI0
aI1
aF1.25
aI0
asI2046
(lp478
I13713
aI1
aNaI1
aI0
aI0
aI0
aI0
aI0
aI0
aI0
aI0
aI0
aI0
aI0
aI0
aI0
aI100
aI0
aI15
aI25
aI25
aI0
aI0
aI1
aI0
aI1
aI0
aI0
aI7
aI0
aI0
aI1
aI0
aI1
aI10
aI0
aI-1
aI0
aF0.10000000000000001
aI1
aI1
aI1
aI1
aI0
aI0
aI0
aI0
aI0
aI0
aI0
aI0
aI0
aVcutlass_stab
p479
aI0
aI1
aF0.25
aI0
as.